GAS LISTING /tmp/cc2bZtJH.s 			page 1


   1               		.file	"main.c"
   2               	__SP_H__ = 0x3e
   3               	__SP_L__ = 0x3d
   4               	__SREG__ = 0x3f
   5               	__tmp_reg__ = 0
   6               	__zero_reg__ = 1
   7               		.stabs	"/home/jon/prog/c/avr/ledmatrixtoy/",100,0,2,.Ltext0
   8               		.stabs	"main.c",100,0,2,.Ltext0
   9               		.text
  10               	.Ltext0:
  11               		.stabs	"gcc2_compiled.",60,0,0,0
  12               		.stabs	"int:t(0,1)=r(0,1);-32768;32767;",128,0,0,0
  13               		.stabs	"char:t(0,2)=@s8;r(0,2);0;255;",128,0,0,0
  14               		.stabs	"long int:t(0,3)=@s32;r(0,3);020000000000;017777777777;",128,0,0,0
  15               		.stabs	"unsigned int:t(0,4)=r(0,4);0;0177777;",128,0,0,0
  16               		.stabs	"long unsigned int:t(0,5)=@s32;r(0,5);0;037777777777;",128,0,0,0
  17               		.stabs	"long long int:t(0,6)=@s64;r(0,6);01000000000000000000000;0777777777777777777777;",128,0,0,
  18               		.stabs	"long long unsigned int:t(0,7)=@s64;r(0,7);0;01777777777777777777777;",128,0,0,0
  19               		.stabs	"short int:t(0,8)=r(0,8);-32768;32767;",128,0,0,0
  20               		.stabs	"short unsigned int:t(0,9)=r(0,9);0;0177777;",128,0,0,0
  21               		.stabs	"signed char:t(0,10)=@s8;r(0,10);-128;127;",128,0,0,0
  22               		.stabs	"unsigned char:t(0,11)=@s8;r(0,11);0;255;",128,0,0,0
  23               		.stabs	"float:t(0,12)=r(0,1);4;0;",128,0,0,0
  24               		.stabs	"double:t(0,13)=r(0,1);4;0;",128,0,0,0
  25               		.stabs	"long double:t(0,14)=r(0,1);4;0;",128,0,0,0
  26               		.stabs	"void:t(0,15)=(0,15)",128,0,0,0
  27               		.stabs	"/usr/lib/gcc/avr/4.7.0/../../../avr/include/avr/io.h",130,0,0,0
  28               		.stabs	"/usr/lib/gcc/avr/4.7.0/../../../avr/include/avr/sfr_defs.h",130,0,0,0
  29               		.stabs	"/usr/lib/gcc/avr/4.7.0/../../../avr/include/inttypes.h",130,0,0,0
  30               		.stabs	"/usr/lib/gcc/avr/4.7.0/include/stdint.h",130,0,0,0
  31               		.stabs	"/usr/lib/gcc/avr/4.7.0/../../../avr/include/stdint.h",130,0,0,0
  32               		.stabs	"int8_t:t(5,1)=(0,10)",128,0,121,0
  33               		.stabs	"uint8_t:t(5,2)=(0,11)",128,0,122,0
  34               		.stabs	"int16_t:t(5,3)=(0,1)",128,0,123,0
  35               		.stabs	"uint16_t:t(5,4)=(0,4)",128,0,124,0
  36               		.stabs	"int32_t:t(5,5)=(0,3)",128,0,125,0
  37               		.stabs	"uint32_t:t(5,6)=(0,5)",128,0,126,0
  38               		.stabs	"int64_t:t(5,7)=(0,6)",128,0,128,0
  39               		.stabs	"uint64_t:t(5,8)=(0,7)",128,0,129,0
  40               		.stabs	"intptr_t:t(5,9)=(5,3)",128,0,142,0
  41               		.stabs	"uintptr_t:t(5,10)=(5,4)",128,0,147,0
  42               		.stabs	"int_least8_t:t(5,11)=(5,1)",128,0,159,0
  43               		.stabs	"uint_least8_t:t(5,12)=(5,2)",128,0,164,0
  44               		.stabs	"int_least16_t:t(5,13)=(5,3)",128,0,169,0
  45               		.stabs	"uint_least16_t:t(5,14)=(5,4)",128,0,174,0
  46               		.stabs	"int_least32_t:t(5,15)=(5,5)",128,0,179,0
  47               		.stabs	"uint_least32_t:t(5,16)=(5,6)",128,0,184,0
  48               		.stabs	"int_least64_t:t(5,17)=(5,7)",128,0,192,0
  49               		.stabs	"uint_least64_t:t(5,18)=(5,8)",128,0,199,0
  50               		.stabs	"int_fast8_t:t(5,19)=(5,1)",128,0,213,0
  51               		.stabs	"uint_fast8_t:t(5,20)=(5,2)",128,0,218,0
  52               		.stabs	"int_fast16_t:t(5,21)=(5,3)",128,0,223,0
  53               		.stabs	"uint_fast16_t:t(5,22)=(5,4)",128,0,228,0
  54               		.stabs	"int_fast32_t:t(5,23)=(5,5)",128,0,233,0
  55               		.stabs	"uint_fast32_t:t(5,24)=(5,6)",128,0,238,0
  56               		.stabs	"int_fast64_t:t(5,25)=(5,7)",128,0,246,0
  57               		.stabs	"uint_fast64_t:t(5,26)=(5,8)",128,0,253,0
GAS LISTING /tmp/cc2bZtJH.s 			page 2


  58               		.stabs	"intmax_t:t(5,27)=(5,7)",128,0,273,0
  59               		.stabs	"uintmax_t:t(5,28)=(5,8)",128,0,278,0
  60               		.stabn	162,0,0,0
  61               		.stabn	162,0,0,0
  62               		.stabs	"int_farptr_t:t(3,1)=(5,5)",128,0,77,0
  63               		.stabs	"uint_farptr_t:t(3,2)=(5,6)",128,0,81,0
  64               		.stabn	162,0,0,0
  65               		.stabn	162,0,0,0
  66               		.stabs	"/usr/lib/gcc/avr/4.7.0/../../../avr/include/avr/fuse.h",130,0,0,0
  67               		.stabs	"__fuse_t:t(6,1)=(6,2)=s3low:(0,11),0,8;high:(0,11),8,8;extended:(0,11),16,8;;",128,0,244,0
  68               		.stabn	162,0,0,0
  69               		.stabn	162,0,0,0
  70               		.stabs	"/usr/lib/gcc/avr/4.7.0/../../../avr/include/stdio.h",130,0,0,0
  71               		.stabs	"/usr/lib/gcc/avr/4.7.0/include/stdarg.h",130,0,0,0
  72               		.stabs	"__gnuc_va_list:t(8,1)=(8,2)=*(0,15)",128,0,40,0
  73               		.stabs	"va_list:t(8,3)=(8,1)",128,0,102,0
  74               		.stabn	162,0,0,0
  75               		.stabs	"/usr/lib/gcc/avr/4.7.0/include/stddef.h",130,0,0,0
  76               		.stabs	"size_t:t(9,1)=(0,4)",128,0,213,0
  77               		.stabn	162,0,0,0
  78               		.stabs	"__file:T(7,1)=s14buf:(7,2)=*(0,2),0,16;unget:(0,11),16,8;flags:(5,2),24,8;size:(0,1),32,16
  79               		.stabn	162,0,0,0
  80               		.stabs	"/usr/lib/gcc/avr/4.7.0/../../../avr/include/avr/power.h",130,0,0,0
  81               		.stabs	" :T(10,1)=@s8;eclock_div_1:0,clock_div_2:1,clock_div_4:2,clock_div_8:3,clock_div_16:4,cloc
  82               		.stabs	"clock_div_t:t(10,2)=(10,1)",128,0,1478,0
  83               		.stabn	162,0,0,0
  84               		.stabs	" :T(0,16)=@s8;eBOUNCER:0,SMILEY:1,SINE:2,SINECIRCLE:3,;",128,0,0,0
  85               		.stabs	"erase_screen:F(0,15)",36,0,81,erase_screen
  86               		.stabs	"val:P(5,4)",64,0,81,24
  87               	.global	erase_screen
  88               		.type	erase_screen, @function
  89               	erase_screen:
  90               		.stabd	46,0,0
   1:main.c        **** /*
   2:main.c        **** Author : Jonathan Whitten
   3:main.c        **** Date : 24 AUG 2012
   4:main.c        **** Title : Motor Driver
   5:main.c        **** Description : The motor driver program executes a simple up-down linear actuator, which should neve
   6:main.c        **** 
   7:main.c        **** */
   8:main.c        **** #include <avr/io.h>
   9:main.c        **** #include <avr/sleep.h>
  10:main.c        **** #include <stdio.h>
  11:main.c        **** #include <avr/power.h>
  12:main.c        **** #include <avr/interrupt.h>
  13:main.c        **** 
  14:main.c        **** #define F_CPU 1000000
  15:main.c        **** #include <util/delay.h>
  16:main.c        **** 
  17:main.c        **** #define TIMER_MAX_VALUE 65535
  18:main.c        **** #define BS(bitnum) (1<<bitnum)
  19:main.c        **** #define NOT(val) (val^0xFF)
  20:main.c        **** 
  21:main.c        **** #define data 0
  22:main.c        **** #define shift 1
  23:main.c        **** #define latch 2
  24:main.c        **** #define enable1 3
GAS LISTING /tmp/cc2bZtJH.s 			page 3


  25:main.c        **** #define enable2 4
  26:main.c        **** #define reset 5
  27:main.c        **** 
  28:main.c        **** enum{
  29:main.c        ****     BOUNCER = 0,
  30:main.c        ****     SMILEY,
  31:main.c        ****     SINE,
  32:main.c        ****     SINECIRCLE
  33:main.c        **** };
  34:main.c        **** 
  35:main.c        **** //Universal variables
  36:main.c        **** uint8_t state;
  37:main.c        **** uint16_t statetimer;
  38:main.c        **** uint16_t matrix[8][8];
  39:main.c        **** uint8_t inttimer;
  40:main.c        **** uint16_t maxtimer;
  41:main.c        **** uint16_t delay;
  42:main.c        **** 
  43:main.c        **** //Bouncer variables
  44:main.c        **** uint8_t posx;
  45:main.c        **** uint8_t posy;
  46:main.c        **** uint8_t dirx;
  47:main.c        **** uint8_t diry;
  48:main.c        **** uint16_t wallbrightness;
  49:main.c        **** 
  50:main.c        **** //sinecircle variables
  51:main.c        **** uint8_t radius;
  52:main.c        **** 
  53:main.c        **** //sine variables
  54:main.c        **** uint8_t sinecounter;
  55:main.c        **** 
  56:main.c        **** //Smileyface map
  57:main.c        **** uint8_t smileymap[8][8] = {
  58:main.c        ****   {0, 0,  1,  1,  1,  1,  0,  0},
  59:main.c        ****   {0, 1,  0,  0,  0,  0,  1,  0},
  60:main.c        ****   {1, 0,  1,  0,  0,  1,  0,  1},
  61:main.c        ****   {1, 0,  0,  0,  0,  0,  0,  1},
  62:main.c        ****   {1, 0,  1,  0,  0,  1,  0,  1},
  63:main.c        ****   {1, 0,  0,  1,  1,  0,  0,  1},
  64:main.c        ****   {0, 1,  0,  0,  0,  0,  1,  0},
  65:main.c        ****   {0, 0,  1,  1,  1,  1,  0,  0}};
  66:main.c        **** 
  67:main.c        **** //Sinemap
  68:main.c        **** uint8_t sinemap[8][28] = {
  69:main.c        **** {1,1,1,1, 0,0,0,0, 0,0,0,0, 0,0,0,0, 0,0,0,0, 0,0,0,0, 0,0,0,0, },
  70:main.c        **** {0,0,0,0, 1,1,0,0, 0,0,0,0, 0,0,0,0, 0,0,0,0, 0,0,0,0, 0,0,1,1, },
  71:main.c        **** {0,0,0,0, 0,0,1,1, 0,0,0,0, 0,0,0,0, 0,0,0,0, 0,0,0,0, 1,1,0,0, },
  72:main.c        **** {0,0,0,0, 0,0,0,0, 1,0,0,0, 0,0,0,0, 0,0,0,0, 0,0,0,1, 0,0,0,0, },
  73:main.c        **** {0,0,0,0, 0,0,0,0, 0,1,0,0, 0,0,0,0, 0,0,0,0, 0,0,1,0, 0,0,0,0, },
  74:main.c        **** {0,0,0,0, 0,0,0,0, 0,0,1,1, 0,0,0,0, 0,0,0,0, 1,1,0,0, 0,0,0,0, },
  75:main.c        **** {0,0,0,0, 0,0,0,0, 0,0,0,0, 1,1,0,0, 0,0,1,1, 0,0,0,0, 0,0,0,0, },
  76:main.c        **** {0,0,0,0, 0,0,0,0, 0,0,0,0, 0,0,1,1, 1,1,0,0, 0,0,0,0, 0,0,0,0, }
  77:main.c        **** };
  78:main.c        **** 
  79:main.c        **** 
  80:main.c        **** 
  81:main.c        **** void erase_screen(uint16_t val)
GAS LISTING /tmp/cc2bZtJH.s 			page 4


  82:main.c        **** {
  91               		.stabn	68,0,82,.LM0-.LFBB1
  92               	.LM0:
  93               	.LFBB1:
  94               	/* prologue: function */
  95               	/* frame size = 0 */
  96               	/* stack size = 0 */
  97               	.L__stack_usage = 0
  98 0000 E0E0      		ldi r30,lo8(matrix)
  99 0002 F0E0      		ldi r31,hi8(matrix)
 100               	.L2:
  83:main.c        ****   int i=0,j =0;
  84:main.c        ****   for(i=0;i<8;i++)
  85:main.c        ****   {
  86:main.c        ****     for(j=0;j<8;j++)
  87:main.c        ****     {
  88:main.c        ****       matrix[i][j] = val;
 101               		.stabn	68,0,88,.LM1-.LFBB1
 102               	.LM1:
 103 0004 9183      		std Z+1,r25
 104 0006 8083      		st Z,r24
 105 0008 9383      		std Z+3,r25
 106 000a 8283      		std Z+2,r24
 107 000c 9583      		std Z+5,r25
 108 000e 8483      		std Z+4,r24
 109 0010 9783      		std Z+7,r25
 110 0012 8683      		std Z+6,r24
 111 0014 9187      		std Z+9,r25
 112 0016 8087      		std Z+8,r24
 113 0018 9387      		std Z+11,r25
 114 001a 8287      		std Z+10,r24
 115 001c 9587      		std Z+13,r25
 116 001e 8487      		std Z+12,r24
 117 0020 9787      		std Z+15,r25
 118 0022 8687      		std Z+14,r24
 119 0024 7096      		adiw r30,16
  84:main.c        ****   for(i=0;i<8;i++)
 120               		.stabn	68,0,84,.LM2-.LFBB1
 121               	.LM2:
 122 0026 20E0      		ldi r18,hi8(matrix+128)
 123 0028 E030      		cpi r30,lo8(matrix+128)
 124 002a F207      		cpc r31,r18
 125 002c 01F4      		brne .L2
 126               	/* epilogue start */
  89:main.c        ****     }
  90:main.c        ****   }
  91:main.c        **** }//end erase screen
 127               		.stabn	68,0,91,.LM3-.LFBB1
 128               	.LM3:
 129 002e 0895      		ret
 130               		.size	erase_screen, .-erase_screen
 131               	.Lscope1:
 132               		.stabs	"",36,0,0,.Lscope1-.LFBB1
 133               		.stabd	78,0,0
 134               		.stabs	"draw_circle:F(0,15)",36,0,93,draw_circle
 135               		.stabs	"radius:P(5,2)",64,0,93,24
 136               		.stabs	"color:P(5,4)",64,0,93,22
GAS LISTING /tmp/cc2bZtJH.s 			page 5


 137               	.global	draw_circle
 138               		.type	draw_circle, @function
 139               	draw_circle:
 140               		.stabd	46,0,0
  92:main.c        **** 
  93:main.c        **** void draw_circle(uint8_t radius, uint16_t color)
  94:main.c        **** {
 141               		.stabn	68,0,94,.LM4-.LFBB2
 142               	.LM4:
 143               	.LFBB2:
 144               	/* prologue: function */
 145               	/* frame size = 0 */
 146               	/* stack size = 0 */
 147               	.L__stack_usage = 0
  95:main.c        **** 
  96:main.c        ****    uint16_t color2 = color - 0x3333;
 148               		.stabn	68,0,96,.LM5-.LFBB2
 149               	.LM5:
 150 0030 9B01      		movw r18,r22
 151 0032 2353      		subi r18,51
 152 0034 3343      		sbci r19,51
  97:main.c        ****    uint16_t color3 = color - 0x6666;
 153               		.stabn	68,0,97,.LM6-.LFBB2
 154               	.LM6:
 155 0036 AB01      		movw r20,r22
 156 0038 4656      		subi r20,102
 157 003a 5646      		sbci r21,102
  98:main.c        ****    uint16_t color4 = color - 0x9999;
 158               		.stabn	68,0,98,.LM7-.LFBB2
 159               	.LM7:
 160 003c FB01      		movw r30,r22
 161 003e E959      		subi r30,-103
 162 0040 F949      		sbci r31,-103
  99:main.c        **** 
 100:main.c        ****     //always centered
 101:main.c        ****     switch(radius)
 163               		.stabn	68,0,101,.LM8-.LFBB2
 164               	.LM8:
 165 0042 90E0      		ldi r25,0
 166 0044 0197      		sbiw r24,1
 167 0046 8C30      		cpi r24,12
 168 0048 9105      		cpc r25,__zero_reg__
 169 004a 00F0      		brlo .+2
 170 004c 00C0      		rjmp .L4
 171 004e 8050      		subi r24,lo8(-(gs(.L18)))
 172 0050 9040      		sbci r25,hi8(-(gs(.L18)))
 173 0052 8F93      		push r24
 174 0054 9F93      		push r25
 175 0056 0895      		ret
 176               		.section	.progmem.gcc_sw_table,"ax",@progbits
 177               		.p2align	1
 178               	.L18:
 179 0000 00C0      		rjmp .L6
 180 0002 00C0      		rjmp .L7
 181 0004 00C0      		rjmp .L8
 182 0006 00C0      		rjmp .L9
 183 0008 00C0      		rjmp .L10
GAS LISTING /tmp/cc2bZtJH.s 			page 6


 184 000a 00C0      		rjmp .L11
 185 000c 00C0      		rjmp .L12
 186 000e 00C0      		rjmp .L13
 187 0010 00C0      		rjmp .L14
 188 0012 00C0      		rjmp .L15
 189 0014 00C0      		rjmp .L16
 190 0016 00C0      		rjmp .L17
 191               		.text
 192               	.L6:
 102:main.c        ****     {
 103:main.c        ****         case 1:
 104:main.c        ****             matrix[4][3] = color;
 193               		.stabn	68,0,104,.LM9-.LFBB2
 194               	.LM9:
 195 0058 7093 0000 		sts matrix+70+1,r23
 196 005c 6093 0000 		sts matrix+70,r22
 105:main.c        ****             break;
 197               		.stabn	68,0,105,.LM10-.LFBB2
 198               	.LM10:
 199 0060 0895      		ret
 200               	.L7:
 106:main.c        ****         case 2:
 107:main.c        ****             matrix[4][3] = color;
 201               		.stabn	68,0,107,.LM11-.LFBB2
 202               	.LM11:
 203 0062 7093 0000 		sts matrix+70+1,r23
 204 0066 6093 0000 		sts matrix+70,r22
 108:main.c        ****             matrix[3][3] = color;
 205               		.stabn	68,0,108,.LM12-.LFBB2
 206               	.LM12:
 207 006a 7093 0000 		sts matrix+54+1,r23
 208 006e 6093 0000 		sts matrix+54,r22
 109:main.c        ****             matrix[3][4] = color;
 209               		.stabn	68,0,109,.LM13-.LFBB2
 210               	.LM13:
 211 0072 7093 0000 		sts matrix+56+1,r23
 212 0076 6093 0000 		sts matrix+56,r22
 110:main.c        ****             matrix[4][4] = color;
 213               		.stabn	68,0,110,.LM14-.LFBB2
 214               	.LM14:
 215 007a 7093 0000 		sts matrix+72+1,r23
 216 007e 6093 0000 		sts matrix+72,r22
 111:main.c        ****             break;
 217               		.stabn	68,0,111,.LM15-.LFBB2
 218               	.LM15:
 219 0082 0895      		ret
 220               	.L8:
 112:main.c        ****         case 3:
 113:main.c        ****             matrix[5][3] = color;
 221               		.stabn	68,0,113,.LM16-.LFBB2
 222               	.LM16:
 223 0084 7093 0000 		sts matrix+86+1,r23
 224 0088 6093 0000 		sts matrix+86,r22
 114:main.c        ****             matrix[5][4] = color;
 225               		.stabn	68,0,114,.LM17-.LFBB2
 226               	.LM17:
 227 008c 7093 0000 		sts matrix+88+1,r23
GAS LISTING /tmp/cc2bZtJH.s 			page 7


 228 0090 6093 0000 		sts matrix+88,r22
 115:main.c        ****             matrix[2][3] = color;
 229               		.stabn	68,0,115,.LM18-.LFBB2
 230               	.LM18:
 231 0094 7093 0000 		sts matrix+38+1,r23
 232 0098 6093 0000 		sts matrix+38,r22
 116:main.c        ****             matrix[2][4] = color;
 233               		.stabn	68,0,116,.LM19-.LFBB2
 234               	.LM19:
 235 009c 7093 0000 		sts matrix+40+1,r23
 236 00a0 6093 0000 		sts matrix+40,r22
 117:main.c        ****             matrix[3][5] = color;
 237               		.stabn	68,0,117,.LM20-.LFBB2
 238               	.LM20:
 239 00a4 7093 0000 		sts matrix+58+1,r23
 240 00a8 6093 0000 		sts matrix+58,r22
 118:main.c        ****             matrix[4][5] = color;
 241               		.stabn	68,0,118,.LM21-.LFBB2
 242               	.LM21:
 243 00ac 7093 0000 		sts matrix+74+1,r23
 244 00b0 6093 0000 		sts matrix+74,r22
 119:main.c        ****             matrix[3][2] = color;
 245               		.stabn	68,0,119,.LM22-.LFBB2
 246               	.LM22:
 247 00b4 7093 0000 		sts matrix+52+1,r23
 248 00b8 6093 0000 		sts matrix+52,r22
 120:main.c        ****             matrix[4][2] = color;
 249               		.stabn	68,0,120,.LM23-.LFBB2
 250               	.LM23:
 251 00bc 7093 0000 		sts matrix+68+1,r23
 252 00c0 6093 0000 		sts matrix+68,r22
 121:main.c        **** 
 122:main.c        ****             //dimmer
 123:main.c        ****             matrix[3][3] = color2;
 253               		.stabn	68,0,123,.LM24-.LFBB2
 254               	.LM24:
 255 00c4 3093 0000 		sts matrix+54+1,r19
 256 00c8 2093 0000 		sts matrix+54,r18
 124:main.c        ****             matrix[3][4] = color2;
 257               		.stabn	68,0,124,.LM25-.LFBB2
 258               	.LM25:
 259 00cc 3093 0000 		sts matrix+56+1,r19
 260 00d0 2093 0000 		sts matrix+56,r18
 125:main.c        ****             matrix[4][3] = color2;
 261               		.stabn	68,0,125,.LM26-.LFBB2
 262               	.LM26:
 263 00d4 3093 0000 		sts matrix+70+1,r19
 264 00d8 2093 0000 		sts matrix+70,r18
 126:main.c        ****             matrix[4][4] = color2;
 265               		.stabn	68,0,126,.LM27-.LFBB2
 266               	.LM27:
 267 00dc 3093 0000 		sts matrix+72+1,r19
 268 00e0 2093 0000 		sts matrix+72,r18
 127:main.c        ****             break;
 269               		.stabn	68,0,127,.LM28-.LFBB2
 270               	.LM28:
 271 00e4 0895      		ret
GAS LISTING /tmp/cc2bZtJH.s 			page 8


 272               	.L9:
 128:main.c        ****         case 4:
 129:main.c        ****             matrix[2][2] = color;
 273               		.stabn	68,0,129,.LM29-.LFBB2
 274               	.LM29:
 275 00e6 7093 0000 		sts matrix+36+1,r23
 276 00ea 6093 0000 		sts matrix+36,r22
 130:main.c        ****             matrix[5][2] = color;
 277               		.stabn	68,0,130,.LM30-.LFBB2
 278               	.LM30:
 279 00ee 7093 0000 		sts matrix+84+1,r23
 280 00f2 6093 0000 		sts matrix+84,r22
 131:main.c        ****             matrix[2][5] = color;
 281               		.stabn	68,0,131,.LM31-.LFBB2
 282               	.LM31:
 283 00f6 7093 0000 		sts matrix+42+1,r23
 284 00fa 6093 0000 		sts matrix+42,r22
 132:main.c        ****             matrix[5][5] = color;
 285               		.stabn	68,0,132,.LM32-.LFBB2
 286               	.LM32:
 287 00fe 7093 0000 		sts matrix+90+1,r23
 288 0102 6093 0000 		sts matrix+90,r22
 133:main.c        **** 
 134:main.c        ****             //dimmer
 135:main.c        ****             matrix[5][3] = color2;
 289               		.stabn	68,0,135,.LM33-.LFBB2
 290               	.LM33:
 291 0106 3093 0000 		sts matrix+86+1,r19
 292 010a 2093 0000 		sts matrix+86,r18
 136:main.c        ****             matrix[5][4] = color2;
 293               		.stabn	68,0,136,.LM34-.LFBB2
 294               	.LM34:
 295 010e 3093 0000 		sts matrix+88+1,r19
 296 0112 2093 0000 		sts matrix+88,r18
 137:main.c        ****             matrix[2][3] = color2;
 297               		.stabn	68,0,137,.LM35-.LFBB2
 298               	.LM35:
 299 0116 3093 0000 		sts matrix+38+1,r19
 300 011a 2093 0000 		sts matrix+38,r18
 138:main.c        ****             matrix[2][4] = color2;
 301               		.stabn	68,0,138,.LM36-.LFBB2
 302               	.LM36:
 303 011e 3093 0000 		sts matrix+40+1,r19
 304 0122 2093 0000 		sts matrix+40,r18
 139:main.c        ****             matrix[3][5] = color2;
 305               		.stabn	68,0,139,.LM37-.LFBB2
 306               	.LM37:
 307 0126 3093 0000 		sts matrix+58+1,r19
 308 012a 2093 0000 		sts matrix+58,r18
 140:main.c        ****             matrix[4][5] = color2;
 309               		.stabn	68,0,140,.LM38-.LFBB2
 310               	.LM38:
 311 012e 3093 0000 		sts matrix+74+1,r19
 312 0132 2093 0000 		sts matrix+74,r18
 141:main.c        ****             matrix[3][2] = color2;
 313               		.stabn	68,0,141,.LM39-.LFBB2
 314               	.LM39:
GAS LISTING /tmp/cc2bZtJH.s 			page 9


 315 0136 3093 0000 		sts matrix+52+1,r19
 316 013a 2093 0000 		sts matrix+52,r18
 142:main.c        ****             matrix[4][2] = color2;
 317               		.stabn	68,0,142,.LM40-.LFBB2
 318               	.LM40:
 319 013e 3093 0000 		sts matrix+68+1,r19
 320 0142 2093 0000 		sts matrix+68,r18
 143:main.c        **** 
 144:main.c        ****             //even dimmer
 145:main.c        ****             matrix[3][3] = color3;
 321               		.stabn	68,0,145,.LM41-.LFBB2
 322               	.LM41:
 323 0146 5093 0000 		sts matrix+54+1,r21
 324 014a 4093 0000 		sts matrix+54,r20
 146:main.c        ****             matrix[3][4] = color3;
 325               		.stabn	68,0,146,.LM42-.LFBB2
 326               	.LM42:
 327 014e 5093 0000 		sts matrix+56+1,r21
 328 0152 4093 0000 		sts matrix+56,r20
 147:main.c        ****             matrix[4][3] = color3;
 329               		.stabn	68,0,147,.LM43-.LFBB2
 330               	.LM43:
 331 0156 5093 0000 		sts matrix+70+1,r21
 332 015a 4093 0000 		sts matrix+70,r20
 148:main.c        ****             matrix[4][4] = color3;
 333               		.stabn	68,0,148,.LM44-.LFBB2
 334               	.LM44:
 335 015e 5093 0000 		sts matrix+72+1,r21
 336 0162 4093 0000 		sts matrix+72,r20
 149:main.c        ****             break;
 337               		.stabn	68,0,149,.LM45-.LFBB2
 338               	.LM45:
 339 0166 0895      		ret
 340               	.L10:
 150:main.c        ****         case 5:
 151:main.c        ****             matrix[1][3] = color;
 341               		.stabn	68,0,151,.LM46-.LFBB2
 342               	.LM46:
 343 0168 7093 0000 		sts matrix+22+1,r23
 344 016c 6093 0000 		sts matrix+22,r22
 152:main.c        ****             matrix[1][4] = color;
 345               		.stabn	68,0,152,.LM47-.LFBB2
 346               	.LM47:
 347 0170 7093 0000 		sts matrix+24+1,r23
 348 0174 6093 0000 		sts matrix+24,r22
 153:main.c        ****             matrix[3][1] = color;
 349               		.stabn	68,0,153,.LM48-.LFBB2
 350               	.LM48:
 351 0178 7093 0000 		sts matrix+50+1,r23
 352 017c 6093 0000 		sts matrix+50,r22
 154:main.c        ****             matrix[4][1] = color;
 353               		.stabn	68,0,154,.LM49-.LFBB2
 354               	.LM49:
 355 0180 7093 0000 		sts matrix+66+1,r23
 356 0184 6093 0000 		sts matrix+66,r22
 155:main.c        ****             matrix[6][3] = color;
 357               		.stabn	68,0,155,.LM50-.LFBB2
GAS LISTING /tmp/cc2bZtJH.s 			page 10


 358               	.LM50:
 359 0188 7093 0000 		sts matrix+102+1,r23
 360 018c 6093 0000 		sts matrix+102,r22
 156:main.c        ****             matrix[6][4] = color;
 361               		.stabn	68,0,156,.LM51-.LFBB2
 362               	.LM51:
 363 0190 7093 0000 		sts matrix+104+1,r23
 364 0194 6093 0000 		sts matrix+104,r22
 157:main.c        ****             matrix[3][6] = color;
 365               		.stabn	68,0,157,.LM52-.LFBB2
 366               	.LM52:
 367 0198 7093 0000 		sts matrix+60+1,r23
 368 019c 6093 0000 		sts matrix+60,r22
 158:main.c        ****             matrix[4][6] = color;
 369               		.stabn	68,0,158,.LM53-.LFBB2
 370               	.LM53:
 371 01a0 7093 0000 		sts matrix+76+1,r23
 372 01a4 6093 0000 		sts matrix+76,r22
 159:main.c        **** 
 160:main.c        ****             //dimmer
 161:main.c        ****             matrix[2][2] = color2;
 373               		.stabn	68,0,161,.LM54-.LFBB2
 374               	.LM54:
 375 01a8 3093 0000 		sts matrix+36+1,r19
 376 01ac 2093 0000 		sts matrix+36,r18
 162:main.c        ****             matrix[5][2] = color2;
 377               		.stabn	68,0,162,.LM55-.LFBB2
 378               	.LM55:
 379 01b0 3093 0000 		sts matrix+84+1,r19
 380 01b4 2093 0000 		sts matrix+84,r18
 163:main.c        ****             matrix[2][5] = color2;
 381               		.stabn	68,0,163,.LM56-.LFBB2
 382               	.LM56:
 383 01b8 3093 0000 		sts matrix+42+1,r19
 384 01bc 2093 0000 		sts matrix+42,r18
 164:main.c        ****             matrix[5][5] = color2;
 385               		.stabn	68,0,164,.LM57-.LFBB2
 386               	.LM57:
 387 01c0 3093 0000 		sts matrix+90+1,r19
 388 01c4 2093 0000 		sts matrix+90,r18
 165:main.c        **** 
 166:main.c        ****             //even dimmer
 167:main.c        ****             matrix[5][3] = color3;
 389               		.stabn	68,0,167,.LM58-.LFBB2
 390               	.LM58:
 391 01c8 5093 0000 		sts matrix+86+1,r21
 392 01cc 4093 0000 		sts matrix+86,r20
 168:main.c        ****             matrix[5][4] = color3;
 393               		.stabn	68,0,168,.LM59-.LFBB2
 394               	.LM59:
 395 01d0 5093 0000 		sts matrix+88+1,r21
 396 01d4 4093 0000 		sts matrix+88,r20
 169:main.c        ****             matrix[2][3] = color3;
 397               		.stabn	68,0,169,.LM60-.LFBB2
 398               	.LM60:
 399 01d8 5093 0000 		sts matrix+38+1,r21
 400 01dc 4093 0000 		sts matrix+38,r20
GAS LISTING /tmp/cc2bZtJH.s 			page 11


 170:main.c        ****             matrix[2][4] = color3;
 401               		.stabn	68,0,170,.LM61-.LFBB2
 402               	.LM61:
 403 01e0 5093 0000 		sts matrix+40+1,r21
 404 01e4 4093 0000 		sts matrix+40,r20
 171:main.c        ****             matrix[3][5] = color3;
 405               		.stabn	68,0,171,.LM62-.LFBB2
 406               	.LM62:
 407 01e8 5093 0000 		sts matrix+58+1,r21
 408 01ec 4093 0000 		sts matrix+58,r20
 172:main.c        ****             matrix[4][5] = color3;
 409               		.stabn	68,0,172,.LM63-.LFBB2
 410               	.LM63:
 411 01f0 5093 0000 		sts matrix+74+1,r21
 412 01f4 4093 0000 		sts matrix+74,r20
 173:main.c        ****             matrix[3][2] = color3;
 413               		.stabn	68,0,173,.LM64-.LFBB2
 414               	.LM64:
 415 01f8 5093 0000 		sts matrix+52+1,r21
 416 01fc 4093 0000 		sts matrix+52,r20
 174:main.c        ****             matrix[4][2] = color3;
 417               		.stabn	68,0,174,.LM65-.LFBB2
 418               	.LM65:
 419 0200 5093 0000 		sts matrix+68+1,r21
 420 0204 4093 0000 		sts matrix+68,r20
 175:main.c        **** 
 176:main.c        ****             matrix[3][3] = color4;
 421               		.stabn	68,0,176,.LM66-.LFBB2
 422               	.LM66:
 423 0208 F093 0000 		sts matrix+54+1,r31
 424 020c E093 0000 		sts matrix+54,r30
 177:main.c        ****             matrix[3][4] = color4;
 425               		.stabn	68,0,177,.LM67-.LFBB2
 426               	.LM67:
 427 0210 F093 0000 		sts matrix+56+1,r31
 428 0214 E093 0000 		sts matrix+56,r30
 178:main.c        ****             matrix[4][3] = color4;
 429               		.stabn	68,0,178,.LM68-.LFBB2
 430               	.LM68:
 431 0218 F093 0000 		sts matrix+70+1,r31
 432 021c E093 0000 		sts matrix+70,r30
 179:main.c        ****             matrix[4][4] = color4;
 433               		.stabn	68,0,179,.LM69-.LFBB2
 434               	.LM69:
 435 0220 F093 0000 		sts matrix+72+1,r31
 436 0224 E093 0000 		sts matrix+72,r30
 180:main.c        **** 
 181:main.c        ****         break;
 437               		.stabn	68,0,181,.LM70-.LFBB2
 438               	.LM70:
 439 0228 0895      		ret
 440               	.L11:
 182:main.c        ****         case 6:
 183:main.c        ****             matrix[1][1] = color;
 441               		.stabn	68,0,183,.LM71-.LFBB2
 442               	.LM71:
 443 022a 7093 0000 		sts matrix+18+1,r23
GAS LISTING /tmp/cc2bZtJH.s 			page 12


 444 022e 6093 0000 		sts matrix+18,r22
 184:main.c        ****             matrix[6][1] = color;
 445               		.stabn	68,0,184,.LM72-.LFBB2
 446               	.LM72:
 447 0232 7093 0000 		sts matrix+98+1,r23
 448 0236 6093 0000 		sts matrix+98,r22
 185:main.c        ****             matrix[6][6] = color;
 449               		.stabn	68,0,185,.LM73-.LFBB2
 450               	.LM73:
 451 023a 7093 0000 		sts matrix+108+1,r23
 452 023e 6093 0000 		sts matrix+108,r22
 186:main.c        ****             matrix[1][6] = color;
 453               		.stabn	68,0,186,.LM74-.LFBB2
 454               	.LM74:
 455 0242 7093 0000 		sts matrix+28+1,r23
 456 0246 6093 0000 		sts matrix+28,r22
 187:main.c        **** 
 188:main.c        ****             matrix[1][3] = color2;
 457               		.stabn	68,0,188,.LM75-.LFBB2
 458               	.LM75:
 459 024a 3093 0000 		sts matrix+22+1,r19
 460 024e 2093 0000 		sts matrix+22,r18
 189:main.c        ****             matrix[1][4] = color2;
 461               		.stabn	68,0,189,.LM76-.LFBB2
 462               	.LM76:
 463 0252 3093 0000 		sts matrix+24+1,r19
 464 0256 2093 0000 		sts matrix+24,r18
 190:main.c        ****             matrix[3][1] = color2;
 465               		.stabn	68,0,190,.LM77-.LFBB2
 466               	.LM77:
 467 025a 3093 0000 		sts matrix+50+1,r19
 468 025e 2093 0000 		sts matrix+50,r18
 191:main.c        ****             matrix[4][1] = color2;
 469               		.stabn	68,0,191,.LM78-.LFBB2
 470               	.LM78:
 471 0262 3093 0000 		sts matrix+66+1,r19
 472 0266 2093 0000 		sts matrix+66,r18
 192:main.c        ****             matrix[6][3] = color2;
 473               		.stabn	68,0,192,.LM79-.LFBB2
 474               	.LM79:
 475 026a 3093 0000 		sts matrix+102+1,r19
 476 026e 2093 0000 		sts matrix+102,r18
 193:main.c        ****             matrix[6][4] = color2;
 477               		.stabn	68,0,193,.LM80-.LFBB2
 478               	.LM80:
 479 0272 3093 0000 		sts matrix+104+1,r19
 480 0276 2093 0000 		sts matrix+104,r18
 194:main.c        ****             matrix[3][6] = color2;
 481               		.stabn	68,0,194,.LM81-.LFBB2
 482               	.LM81:
 483 027a 3093 0000 		sts matrix+60+1,r19
 484 027e 2093 0000 		sts matrix+60,r18
 195:main.c        ****             matrix[4][6] = color2;
 485               		.stabn	68,0,195,.LM82-.LFBB2
 486               	.LM82:
 487 0282 3093 0000 		sts matrix+76+1,r19
 488 0286 2093 0000 		sts matrix+76,r18
GAS LISTING /tmp/cc2bZtJH.s 			page 13


 196:main.c        **** 
 197:main.c        ****             //dimmer
 198:main.c        ****             matrix[2][2] = color3;
 489               		.stabn	68,0,198,.LM83-.LFBB2
 490               	.LM83:
 491 028a 5093 0000 		sts matrix+36+1,r21
 492 028e 4093 0000 		sts matrix+36,r20
 199:main.c        ****             matrix[5][2] = color3;
 493               		.stabn	68,0,199,.LM84-.LFBB2
 494               	.LM84:
 495 0292 5093 0000 		sts matrix+84+1,r21
 496 0296 4093 0000 		sts matrix+84,r20
 200:main.c        ****             matrix[2][5] = color3;
 497               		.stabn	68,0,200,.LM85-.LFBB2
 498               	.LM85:
 499 029a 5093 0000 		sts matrix+42+1,r21
 500 029e 4093 0000 		sts matrix+42,r20
 201:main.c        ****             matrix[5][5] = color3;
 501               		.stabn	68,0,201,.LM86-.LFBB2
 502               	.LM86:
 503 02a2 5093 0000 		sts matrix+90+1,r21
 504 02a6 4093 0000 		sts matrix+90,r20
 202:main.c        **** 
 203:main.c        ****             //even dimmer
 204:main.c        ****             matrix[5][3] = color4;
 505               		.stabn	68,0,204,.LM87-.LFBB2
 506               	.LM87:
 507 02aa F093 0000 		sts matrix+86+1,r31
 508 02ae E093 0000 		sts matrix+86,r30
 205:main.c        ****             matrix[5][4] = color4;
 509               		.stabn	68,0,205,.LM88-.LFBB2
 510               	.LM88:
 511 02b2 F093 0000 		sts matrix+88+1,r31
 512 02b6 E093 0000 		sts matrix+88,r30
 206:main.c        ****             matrix[2][3] = color4;
 513               		.stabn	68,0,206,.LM89-.LFBB2
 514               	.LM89:
 515 02ba F093 0000 		sts matrix+38+1,r31
 516 02be E093 0000 		sts matrix+38,r30
 207:main.c        ****             matrix[2][4] = color4;
 517               		.stabn	68,0,207,.LM90-.LFBB2
 518               	.LM90:
 519 02c2 F093 0000 		sts matrix+40+1,r31
 520 02c6 E093 0000 		sts matrix+40,r30
 208:main.c        ****             matrix[3][5] = color4;
 521               		.stabn	68,0,208,.LM91-.LFBB2
 522               	.LM91:
 523 02ca F093 0000 		sts matrix+58+1,r31
 524 02ce E093 0000 		sts matrix+58,r30
 209:main.c        ****             matrix[4][5] = color4;
 525               		.stabn	68,0,209,.LM92-.LFBB2
 526               	.LM92:
 527 02d2 F093 0000 		sts matrix+74+1,r31
 528 02d6 E093 0000 		sts matrix+74,r30
 210:main.c        ****             matrix[3][2] = color4;
 529               		.stabn	68,0,210,.LM93-.LFBB2
 530               	.LM93:
GAS LISTING /tmp/cc2bZtJH.s 			page 14


 531 02da F093 0000 		sts matrix+52+1,r31
 532 02de E093 0000 		sts matrix+52,r30
 211:main.c        ****             matrix[4][2] = color4;
 533               		.stabn	68,0,211,.LM94-.LFBB2
 534               	.LM94:
 535 02e2 F093 0000 		sts matrix+68+1,r31
 536 02e6 E093 0000 		sts matrix+68,r30
 212:main.c        ****         break;
 537               		.stabn	68,0,212,.LM95-.LFBB2
 538               	.LM95:
 539 02ea 0895      		ret
 540               	.L12:
 213:main.c        ****         case 7:
 214:main.c        ****             matrix[0][2] = color;
 541               		.stabn	68,0,214,.LM96-.LFBB2
 542               	.LM96:
 543 02ec 7093 0000 		sts matrix+4+1,r23
 544 02f0 6093 0000 		sts matrix+4,r22
 215:main.c        ****             matrix[0][5] = color;
 545               		.stabn	68,0,215,.LM97-.LFBB2
 546               	.LM97:
 547 02f4 7093 0000 		sts matrix+10+1,r23
 548 02f8 6093 0000 		sts matrix+10,r22
 216:main.c        ****             matrix[2][0] = color;
 549               		.stabn	68,0,216,.LM98-.LFBB2
 550               	.LM98:
 551 02fc 7093 0000 		sts matrix+32+1,r23
 552 0300 6093 0000 		sts matrix+32,r22
 217:main.c        ****             matrix[2][7] = color;
 553               		.stabn	68,0,217,.LM99-.LFBB2
 554               	.LM99:
 555 0304 7093 0000 		sts matrix+46+1,r23
 556 0308 6093 0000 		sts matrix+46,r22
 218:main.c        ****             matrix[5][0] = color;
 557               		.stabn	68,0,218,.LM100-.LFBB2
 558               	.LM100:
 559 030c 7093 0000 		sts matrix+80+1,r23
 560 0310 6093 0000 		sts matrix+80,r22
 219:main.c        ****             matrix[5][7] = color;
 561               		.stabn	68,0,219,.LM101-.LFBB2
 562               	.LM101:
 563 0314 7093 0000 		sts matrix+94+1,r23
 564 0318 6093 0000 		sts matrix+94,r22
 220:main.c        ****             matrix[7][2] = color;
 565               		.stabn	68,0,220,.LM102-.LFBB2
 566               	.LM102:
 567 031c 7093 0000 		sts matrix+116+1,r23
 568 0320 6093 0000 		sts matrix+116,r22
 221:main.c        ****             matrix[7][5] = color;
 569               		.stabn	68,0,221,.LM103-.LFBB2
 570               	.LM103:
 571 0324 7093 0000 		sts matrix+122+1,r23
 572 0328 6093 0000 		sts matrix+122,r22
 222:main.c        ****             matrix[1][2] = color;
 573               		.stabn	68,0,222,.LM104-.LFBB2
 574               	.LM104:
 575 032c 7093 0000 		sts matrix+20+1,r23
GAS LISTING /tmp/cc2bZtJH.s 			page 15


 576 0330 6093 0000 		sts matrix+20,r22
 223:main.c        ****             matrix[1][5] = color;
 577               		.stabn	68,0,223,.LM105-.LFBB2
 578               	.LM105:
 579 0334 7093 0000 		sts matrix+26+1,r23
 580 0338 6093 0000 		sts matrix+26,r22
 224:main.c        ****             matrix[2][1] = color;
 581               		.stabn	68,0,224,.LM106-.LFBB2
 582               	.LM106:
 583 033c 7093 0000 		sts matrix+34+1,r23
 584 0340 6093 0000 		sts matrix+34,r22
 225:main.c        ****             matrix[2][6] = color;
 585               		.stabn	68,0,225,.LM107-.LFBB2
 586               	.LM107:
 587 0344 7093 0000 		sts matrix+44+1,r23
 588 0348 6093 0000 		sts matrix+44,r22
 226:main.c        ****             matrix[5][1] = color;
 589               		.stabn	68,0,226,.LM108-.LFBB2
 590               	.LM108:
 591 034c 7093 0000 		sts matrix+82+1,r23
 592 0350 6093 0000 		sts matrix+82,r22
 227:main.c        ****             matrix[5][6] = color;
 593               		.stabn	68,0,227,.LM109-.LFBB2
 594               	.LM109:
 595 0354 7093 0000 		sts matrix+92+1,r23
 596 0358 6093 0000 		sts matrix+92,r22
 228:main.c        ****             matrix[6][2] = color;
 597               		.stabn	68,0,228,.LM110-.LFBB2
 598               	.LM110:
 599 035c 7093 0000 		sts matrix+100+1,r23
 600 0360 6093 0000 		sts matrix+100,r22
 229:main.c        ****             matrix[6][5] = color;
 601               		.stabn	68,0,229,.LM111-.LFBB2
 602               	.LM111:
 603 0364 7093 0000 		sts matrix+106+1,r23
 604 0368 6093 0000 		sts matrix+106,r22
 230:main.c        **** 
 231:main.c        ****             matrix[1][1] = color2;
 605               		.stabn	68,0,231,.LM112-.LFBB2
 606               	.LM112:
 607 036c 3093 0000 		sts matrix+18+1,r19
 608 0370 2093 0000 		sts matrix+18,r18
 232:main.c        ****             matrix[6][1] = color2;
 609               		.stabn	68,0,232,.LM113-.LFBB2
 610               	.LM113:
 611 0374 3093 0000 		sts matrix+98+1,r19
 612 0378 2093 0000 		sts matrix+98,r18
 233:main.c        ****             matrix[6][6] = color2;
 613               		.stabn	68,0,233,.LM114-.LFBB2
 614               	.LM114:
 615 037c 3093 0000 		sts matrix+108+1,r19
 616 0380 2093 0000 		sts matrix+108,r18
 234:main.c        ****             matrix[1][6] = color2;
 617               		.stabn	68,0,234,.LM115-.LFBB2
 618               	.LM115:
 619 0384 3093 0000 		sts matrix+28+1,r19
 620 0388 2093 0000 		sts matrix+28,r18
GAS LISTING /tmp/cc2bZtJH.s 			page 16


 235:main.c        **** 
 236:main.c        ****             matrix[1][3] = color3;
 621               		.stabn	68,0,236,.LM116-.LFBB2
 622               	.LM116:
 623 038c 5093 0000 		sts matrix+22+1,r21
 624 0390 4093 0000 		sts matrix+22,r20
 237:main.c        ****             matrix[1][4] = color3;
 625               		.stabn	68,0,237,.LM117-.LFBB2
 626               	.LM117:
 627 0394 5093 0000 		sts matrix+24+1,r21
 628 0398 4093 0000 		sts matrix+24,r20
 238:main.c        ****             matrix[3][1] = color3;
 629               		.stabn	68,0,238,.LM118-.LFBB2
 630               	.LM118:
 631 039c 5093 0000 		sts matrix+50+1,r21
 632 03a0 4093 0000 		sts matrix+50,r20
 239:main.c        ****             matrix[4][1] = color3;
 633               		.stabn	68,0,239,.LM119-.LFBB2
 634               	.LM119:
 635 03a4 5093 0000 		sts matrix+66+1,r21
 636 03a8 4093 0000 		sts matrix+66,r20
 240:main.c        ****             matrix[6][3] = color3;
 637               		.stabn	68,0,240,.LM120-.LFBB2
 638               	.LM120:
 639 03ac 5093 0000 		sts matrix+102+1,r21
 640 03b0 4093 0000 		sts matrix+102,r20
 241:main.c        ****             matrix[6][4] = color3;
 641               		.stabn	68,0,241,.LM121-.LFBB2
 642               	.LM121:
 643 03b4 5093 0000 		sts matrix+104+1,r21
 644 03b8 4093 0000 		sts matrix+104,r20
 242:main.c        ****             matrix[3][6] = color3;
 645               		.stabn	68,0,242,.LM122-.LFBB2
 646               	.LM122:
 647 03bc 5093 0000 		sts matrix+60+1,r21
 648 03c0 4093 0000 		sts matrix+60,r20
 243:main.c        ****             matrix[4][6] = color3;
 649               		.stabn	68,0,243,.LM123-.LFBB2
 650               	.LM123:
 651 03c4 5093 0000 		sts matrix+76+1,r21
 652 03c8 4093 0000 		sts matrix+76,r20
 244:main.c        **** 
 245:main.c        ****             //dimmer
 246:main.c        ****             matrix[2][2] = color4;
 653               		.stabn	68,0,246,.LM124-.LFBB2
 654               	.LM124:
 655 03cc F093 0000 		sts matrix+36+1,r31
 656 03d0 E093 0000 		sts matrix+36,r30
 247:main.c        ****             matrix[5][2] = color4;
 657               		.stabn	68,0,247,.LM125-.LFBB2
 658               	.LM125:
 659 03d4 F093 0000 		sts matrix+84+1,r31
 660 03d8 E093 0000 		sts matrix+84,r30
 248:main.c        ****             matrix[2][5] = color4;
 661               		.stabn	68,0,248,.LM126-.LFBB2
 662               	.LM126:
 663 03dc F093 0000 		sts matrix+42+1,r31
GAS LISTING /tmp/cc2bZtJH.s 			page 17


 664 03e0 E093 0000 		sts matrix+42,r30
 249:main.c        ****             matrix[5][5] = color4;
 665               		.stabn	68,0,249,.LM127-.LFBB2
 666               	.LM127:
 667 03e4 F093 0000 		sts matrix+90+1,r31
 668 03e8 E093 0000 		sts matrix+90,r30
 250:main.c        **** 
 251:main.c        ****         break;
 669               		.stabn	68,0,251,.LM128-.LFBB2
 670               	.LM128:
 671 03ec 0895      		ret
 672               	.L13:
 252:main.c        ****         case 8:
 253:main.c        ****             matrix[0][0] = color;
 673               		.stabn	68,0,253,.LM129-.LFBB2
 674               	.LM129:
 675 03ee 7093 0000 		sts matrix+1,r23
 676 03f2 6093 0000 		sts matrix,r22
 254:main.c        ****             matrix[0][1] = color;
 677               		.stabn	68,0,254,.LM130-.LFBB2
 678               	.LM130:
 679 03f6 7093 0000 		sts matrix+2+1,r23
 680 03fa 6093 0000 		sts matrix+2,r22
 255:main.c        ****             matrix[0][6] = color;
 681               		.stabn	68,0,255,.LM131-.LFBB2
 682               	.LM131:
 683 03fe 7093 0000 		sts matrix+12+1,r23
 684 0402 6093 0000 		sts matrix+12,r22
 256:main.c        ****             matrix[0][7] = color;
 685               		.stabn	68,0,256,.LM132-.LFBB2
 686               	.LM132:
 687 0406 7093 0000 		sts matrix+14+1,r23
 688 040a 6093 0000 		sts matrix+14,r22
 257:main.c        ****             matrix[1][0] = color;
 689               		.stabn	68,0,257,.LM133-.LFBB2
 690               	.LM133:
 691 040e 7093 0000 		sts matrix+16+1,r23
 692 0412 6093 0000 		sts matrix+16,r22
 258:main.c        ****             matrix[1][7] = color;
 693               		.stabn	68,0,258,.LM134-.LFBB2
 694               	.LM134:
 695 0416 7093 0000 		sts matrix+30+1,r23
 696 041a 6093 0000 		sts matrix+30,r22
 259:main.c        ****             matrix[7][7] = color;
 697               		.stabn	68,0,259,.LM135-.LFBB2
 698               	.LM135:
 699 041e 7093 0000 		sts matrix+126+1,r23
 700 0422 6093 0000 		sts matrix+126,r22
 260:main.c        ****             matrix[7][6] = color;
 701               		.stabn	68,0,260,.LM136-.LFBB2
 702               	.LM136:
 703 0426 7093 0000 		sts matrix+124+1,r23
 704 042a 6093 0000 		sts matrix+124,r22
 261:main.c        ****             matrix[7][1] = color;
 705               		.stabn	68,0,261,.LM137-.LFBB2
 706               	.LM137:
 707 042e 7093 0000 		sts matrix+114+1,r23
GAS LISTING /tmp/cc2bZtJH.s 			page 18


 708 0432 6093 0000 		sts matrix+114,r22
 262:main.c        ****             matrix[7][0] = color;
 709               		.stabn	68,0,262,.LM138-.LFBB2
 710               	.LM138:
 711 0436 7093 0000 		sts matrix+112+1,r23
 712 043a 6093 0000 		sts matrix+112,r22
 263:main.c        ****             matrix[6][7] = color;
 713               		.stabn	68,0,263,.LM139-.LFBB2
 714               	.LM139:
 715 043e 7093 0000 		sts matrix+110+1,r23
 716 0442 6093 0000 		sts matrix+110,r22
 264:main.c        ****             matrix[6][0] = color;
 717               		.stabn	68,0,264,.LM140-.LFBB2
 718               	.LM140:
 719 0446 7093 0000 		sts matrix+96+1,r23
 720 044a 6093 0000 		sts matrix+96,r22
 265:main.c        **** 
 266:main.c        ****             matrix[0][2] = color2;
 721               		.stabn	68,0,266,.LM141-.LFBB2
 722               	.LM141:
 723 044e 3093 0000 		sts matrix+4+1,r19
 724 0452 2093 0000 		sts matrix+4,r18
 267:main.c        ****             matrix[0][5] = color2;
 725               		.stabn	68,0,267,.LM142-.LFBB2
 726               	.LM142:
 727 0456 3093 0000 		sts matrix+10+1,r19
 728 045a 2093 0000 		sts matrix+10,r18
 268:main.c        ****             matrix[2][0] = color2;
 729               		.stabn	68,0,268,.LM143-.LFBB2
 730               	.LM143:
 731 045e 3093 0000 		sts matrix+32+1,r19
 732 0462 2093 0000 		sts matrix+32,r18
 269:main.c        ****             matrix[2][7] = color2;
 733               		.stabn	68,0,269,.LM144-.LFBB2
 734               	.LM144:
 735 0466 3093 0000 		sts matrix+46+1,r19
 736 046a 2093 0000 		sts matrix+46,r18
 270:main.c        ****             matrix[5][0] = color2;
 737               		.stabn	68,0,270,.LM145-.LFBB2
 738               	.LM145:
 739 046e 3093 0000 		sts matrix+80+1,r19
 740 0472 2093 0000 		sts matrix+80,r18
 271:main.c        ****             matrix[5][7] = color2;
 741               		.stabn	68,0,271,.LM146-.LFBB2
 742               	.LM146:
 743 0476 3093 0000 		sts matrix+94+1,r19
 744 047a 2093 0000 		sts matrix+94,r18
 272:main.c        ****             matrix[7][2] = color2;
 745               		.stabn	68,0,272,.LM147-.LFBB2
 746               	.LM147:
 747 047e 3093 0000 		sts matrix+116+1,r19
 748 0482 2093 0000 		sts matrix+116,r18
 273:main.c        ****             matrix[7][5] = color2;
 749               		.stabn	68,0,273,.LM148-.LFBB2
 750               	.LM148:
 751 0486 3093 0000 		sts matrix+122+1,r19
 752 048a 2093 0000 		sts matrix+122,r18
GAS LISTING /tmp/cc2bZtJH.s 			page 19


 274:main.c        ****             matrix[1][2] = color2;
 753               		.stabn	68,0,274,.LM149-.LFBB2
 754               	.LM149:
 755 048e 3093 0000 		sts matrix+20+1,r19
 756 0492 2093 0000 		sts matrix+20,r18
 275:main.c        ****             matrix[1][5] = color2;
 757               		.stabn	68,0,275,.LM150-.LFBB2
 758               	.LM150:
 759 0496 3093 0000 		sts matrix+26+1,r19
 760 049a 2093 0000 		sts matrix+26,r18
 276:main.c        ****             matrix[2][1] = color2;
 761               		.stabn	68,0,276,.LM151-.LFBB2
 762               	.LM151:
 763 049e 3093 0000 		sts matrix+34+1,r19
 764 04a2 2093 0000 		sts matrix+34,r18
 277:main.c        ****             matrix[2][6] = color2;
 765               		.stabn	68,0,277,.LM152-.LFBB2
 766               	.LM152:
 767 04a6 3093 0000 		sts matrix+44+1,r19
 768 04aa 2093 0000 		sts matrix+44,r18
 278:main.c        ****             matrix[5][1] = color2;
 769               		.stabn	68,0,278,.LM153-.LFBB2
 770               	.LM153:
 771 04ae 3093 0000 		sts matrix+82+1,r19
 772 04b2 2093 0000 		sts matrix+82,r18
 279:main.c        ****             matrix[5][6] = color2;
 773               		.stabn	68,0,279,.LM154-.LFBB2
 774               	.LM154:
 775 04b6 3093 0000 		sts matrix+92+1,r19
 776 04ba 2093 0000 		sts matrix+92,r18
 280:main.c        ****             matrix[6][2] = color2;
 777               		.stabn	68,0,280,.LM155-.LFBB2
 778               	.LM155:
 779 04be 3093 0000 		sts matrix+100+1,r19
 780 04c2 2093 0000 		sts matrix+100,r18
 281:main.c        ****             matrix[6][5] = color2;
 781               		.stabn	68,0,281,.LM156-.LFBB2
 782               	.LM156:
 783 04c6 3093 0000 		sts matrix+106+1,r19
 784 04ca 2093 0000 		sts matrix+106,r18
 282:main.c        **** 
 283:main.c        ****             matrix[1][1] = color3;
 785               		.stabn	68,0,283,.LM157-.LFBB2
 786               	.LM157:
 787 04ce 5093 0000 		sts matrix+18+1,r21
 788 04d2 4093 0000 		sts matrix+18,r20
 284:main.c        ****             matrix[6][1] = color3;
 789               		.stabn	68,0,284,.LM158-.LFBB2
 790               	.LM158:
 791 04d6 5093 0000 		sts matrix+98+1,r21
 792 04da 4093 0000 		sts matrix+98,r20
 285:main.c        ****             matrix[6][6] = color3;
 793               		.stabn	68,0,285,.LM159-.LFBB2
 794               	.LM159:
 795 04de 5093 0000 		sts matrix+108+1,r21
 796 04e2 4093 0000 		sts matrix+108,r20
 286:main.c        ****             matrix[1][6] = color3;
GAS LISTING /tmp/cc2bZtJH.s 			page 20


 797               		.stabn	68,0,286,.LM160-.LFBB2
 798               	.LM160:
 799 04e6 5093 0000 		sts matrix+28+1,r21
 800 04ea 4093 0000 		sts matrix+28,r20
 287:main.c        **** 
 288:main.c        ****             matrix[1][3] = color4;
 801               		.stabn	68,0,288,.LM161-.LFBB2
 802               	.LM161:
 803 04ee F093 0000 		sts matrix+22+1,r31
 804 04f2 E093 0000 		sts matrix+22,r30
 289:main.c        ****             matrix[1][4] = color4;
 805               		.stabn	68,0,289,.LM162-.LFBB2
 806               	.LM162:
 807 04f6 F093 0000 		sts matrix+24+1,r31
 808 04fa E093 0000 		sts matrix+24,r30
 290:main.c        ****             matrix[3][1] = color4;
 809               		.stabn	68,0,290,.LM163-.LFBB2
 810               	.LM163:
 811 04fe F093 0000 		sts matrix+50+1,r31
 812 0502 E093 0000 		sts matrix+50,r30
 291:main.c        ****             matrix[4][1] = color4;
 813               		.stabn	68,0,291,.LM164-.LFBB2
 814               	.LM164:
 815 0506 F093 0000 		sts matrix+66+1,r31
 816 050a E093 0000 		sts matrix+66,r30
 292:main.c        ****             matrix[6][3] = color4;
 817               		.stabn	68,0,292,.LM165-.LFBB2
 818               	.LM165:
 819 050e F093 0000 		sts matrix+102+1,r31
 820 0512 E093 0000 		sts matrix+102,r30
 293:main.c        ****             matrix[6][4] = color4;
 821               		.stabn	68,0,293,.LM166-.LFBB2
 822               	.LM166:
 823 0516 F093 0000 		sts matrix+104+1,r31
 824 051a E093 0000 		sts matrix+104,r30
 294:main.c        ****             matrix[3][6] = color4;
 825               		.stabn	68,0,294,.LM167-.LFBB2
 826               	.LM167:
 827 051e F093 0000 		sts matrix+60+1,r31
 828 0522 E093 0000 		sts matrix+60,r30
 295:main.c        ****             matrix[4][6] = color4;
 829               		.stabn	68,0,295,.LM168-.LFBB2
 830               	.LM168:
 831 0526 F093 0000 		sts matrix+76+1,r31
 832 052a E093 0000 		sts matrix+76,r30
 296:main.c        **** 
 297:main.c        ****         break;
 833               		.stabn	68,0,297,.LM169-.LFBB2
 834               	.LM169:
 835 052e 0895      		ret
 836               	.L14:
 298:main.c        ****         case 9:
 299:main.c        ****             matrix[0][3] = color;
 837               		.stabn	68,0,299,.LM170-.LFBB2
 838               	.LM170:
 839 0530 7093 0000 		sts matrix+6+1,r23
 840 0534 6093 0000 		sts matrix+6,r22
GAS LISTING /tmp/cc2bZtJH.s 			page 21


 300:main.c        ****             matrix[0][4] = color;
 841               		.stabn	68,0,300,.LM171-.LFBB2
 842               	.LM171:
 843 0538 7093 0000 		sts matrix+8+1,r23
 844 053c 6093 0000 		sts matrix+8,r22
 301:main.c        ****             matrix[3][0] = color;
 845               		.stabn	68,0,301,.LM172-.LFBB2
 846               	.LM172:
 847 0540 7093 0000 		sts matrix+48+1,r23
 848 0544 6093 0000 		sts matrix+48,r22
 302:main.c        ****             matrix[3][7] = color;
 849               		.stabn	68,0,302,.LM173-.LFBB2
 850               	.LM173:
 851 0548 7093 0000 		sts matrix+62+1,r23
 852 054c 6093 0000 		sts matrix+62,r22
 303:main.c        ****             matrix[4][0] = color;
 853               		.stabn	68,0,303,.LM174-.LFBB2
 854               	.LM174:
 855 0550 7093 0000 		sts matrix+64+1,r23
 856 0554 6093 0000 		sts matrix+64,r22
 304:main.c        ****             matrix[4][7] = color;
 857               		.stabn	68,0,304,.LM175-.LFBB2
 858               	.LM175:
 859 0558 7093 0000 		sts matrix+78+1,r23
 860 055c 6093 0000 		sts matrix+78,r22
 305:main.c        ****             matrix[7][3] = color;
 861               		.stabn	68,0,305,.LM176-.LFBB2
 862               	.LM176:
 863 0560 7093 0000 		sts matrix+118+1,r23
 864 0564 6093 0000 		sts matrix+118,r22
 306:main.c        ****             matrix[7][4] = color;
 865               		.stabn	68,0,306,.LM177-.LFBB2
 866               	.LM177:
 867 0568 7093 0000 		sts matrix+120+1,r23
 868 056c 6093 0000 		sts matrix+120,r22
 307:main.c        **** 
 308:main.c        ****             matrix[0][0] = color2;
 869               		.stabn	68,0,308,.LM178-.LFBB2
 870               	.LM178:
 871 0570 3093 0000 		sts matrix+1,r19
 872 0574 2093 0000 		sts matrix,r18
 309:main.c        ****             matrix[0][1] = color2;
 873               		.stabn	68,0,309,.LM179-.LFBB2
 874               	.LM179:
 875 0578 3093 0000 		sts matrix+2+1,r19
 876 057c 2093 0000 		sts matrix+2,r18
 310:main.c        ****             matrix[0][6] = color2;
 877               		.stabn	68,0,310,.LM180-.LFBB2
 878               	.LM180:
 879 0580 3093 0000 		sts matrix+12+1,r19
 880 0584 2093 0000 		sts matrix+12,r18
 311:main.c        ****             matrix[0][7] = color2;
 881               		.stabn	68,0,311,.LM181-.LFBB2
 882               	.LM181:
 883 0588 3093 0000 		sts matrix+14+1,r19
 884 058c 2093 0000 		sts matrix+14,r18
 312:main.c        ****             matrix[1][0] = color2;
GAS LISTING /tmp/cc2bZtJH.s 			page 22


 885               		.stabn	68,0,312,.LM182-.LFBB2
 886               	.LM182:
 887 0590 3093 0000 		sts matrix+16+1,r19
 888 0594 2093 0000 		sts matrix+16,r18
 313:main.c        ****             matrix[1][7] = color2;
 889               		.stabn	68,0,313,.LM183-.LFBB2
 890               	.LM183:
 891 0598 3093 0000 		sts matrix+30+1,r19
 892 059c 2093 0000 		sts matrix+30,r18
 314:main.c        ****             matrix[7][7] = color2;
 893               		.stabn	68,0,314,.LM184-.LFBB2
 894               	.LM184:
 895 05a0 3093 0000 		sts matrix+126+1,r19
 896 05a4 2093 0000 		sts matrix+126,r18
 315:main.c        ****             matrix[7][6] = color2;
 897               		.stabn	68,0,315,.LM185-.LFBB2
 898               	.LM185:
 899 05a8 3093 0000 		sts matrix+124+1,r19
 900 05ac 2093 0000 		sts matrix+124,r18
 316:main.c        ****             matrix[7][1] = color2;
 901               		.stabn	68,0,316,.LM186-.LFBB2
 902               	.LM186:
 903 05b0 3093 0000 		sts matrix+114+1,r19
 904 05b4 2093 0000 		sts matrix+114,r18
 317:main.c        ****             matrix[7][0] = color2;
 905               		.stabn	68,0,317,.LM187-.LFBB2
 906               	.LM187:
 907 05b8 3093 0000 		sts matrix+112+1,r19
 908 05bc 2093 0000 		sts matrix+112,r18
 318:main.c        ****             matrix[6][7] = color2;
 909               		.stabn	68,0,318,.LM188-.LFBB2
 910               	.LM188:
 911 05c0 3093 0000 		sts matrix+110+1,r19
 912 05c4 2093 0000 		sts matrix+110,r18
 319:main.c        ****             matrix[6][0] = color2;
 913               		.stabn	68,0,319,.LM189-.LFBB2
 914               	.LM189:
 915 05c8 3093 0000 		sts matrix+96+1,r19
 916 05cc 2093 0000 		sts matrix+96,r18
 320:main.c        **** 
 321:main.c        ****             matrix[0][2] = color3;
 917               		.stabn	68,0,321,.LM190-.LFBB2
 918               	.LM190:
 919 05d0 5093 0000 		sts matrix+4+1,r21
 920 05d4 4093 0000 		sts matrix+4,r20
 322:main.c        ****             matrix[0][5] = color3;
 921               		.stabn	68,0,322,.LM191-.LFBB2
 922               	.LM191:
 923 05d8 5093 0000 		sts matrix+10+1,r21
 924 05dc 4093 0000 		sts matrix+10,r20
 323:main.c        ****             matrix[2][0] = color3;
 925               		.stabn	68,0,323,.LM192-.LFBB2
 926               	.LM192:
 927 05e0 5093 0000 		sts matrix+32+1,r21
 928 05e4 4093 0000 		sts matrix+32,r20
 324:main.c        ****             matrix[2][7] = color3;
 929               		.stabn	68,0,324,.LM193-.LFBB2
GAS LISTING /tmp/cc2bZtJH.s 			page 23


 930               	.LM193:
 931 05e8 5093 0000 		sts matrix+46+1,r21
 932 05ec 4093 0000 		sts matrix+46,r20
 325:main.c        ****             matrix[5][0] = color3;
 933               		.stabn	68,0,325,.LM194-.LFBB2
 934               	.LM194:
 935 05f0 5093 0000 		sts matrix+80+1,r21
 936 05f4 4093 0000 		sts matrix+80,r20
 326:main.c        ****             matrix[5][7] = color3;
 937               		.stabn	68,0,326,.LM195-.LFBB2
 938               	.LM195:
 939 05f8 5093 0000 		sts matrix+94+1,r21
 940 05fc 4093 0000 		sts matrix+94,r20
 327:main.c        ****             matrix[7][2] = color3;
 941               		.stabn	68,0,327,.LM196-.LFBB2
 942               	.LM196:
 943 0600 5093 0000 		sts matrix+116+1,r21
 944 0604 4093 0000 		sts matrix+116,r20
 328:main.c        ****             matrix[7][5] = color3;
 945               		.stabn	68,0,328,.LM197-.LFBB2
 946               	.LM197:
 947 0608 5093 0000 		sts matrix+122+1,r21
 948 060c 4093 0000 		sts matrix+122,r20
 329:main.c        ****             matrix[1][2] = color3;
 949               		.stabn	68,0,329,.LM198-.LFBB2
 950               	.LM198:
 951 0610 5093 0000 		sts matrix+20+1,r21
 952 0614 4093 0000 		sts matrix+20,r20
 330:main.c        ****             matrix[1][5] = color3;
 953               		.stabn	68,0,330,.LM199-.LFBB2
 954               	.LM199:
 955 0618 5093 0000 		sts matrix+26+1,r21
 956 061c 4093 0000 		sts matrix+26,r20
 331:main.c        ****             matrix[2][1] = color3;
 957               		.stabn	68,0,331,.LM200-.LFBB2
 958               	.LM200:
 959 0620 5093 0000 		sts matrix+34+1,r21
 960 0624 4093 0000 		sts matrix+34,r20
 332:main.c        ****             matrix[2][6] = color3;
 961               		.stabn	68,0,332,.LM201-.LFBB2
 962               	.LM201:
 963 0628 5093 0000 		sts matrix+44+1,r21
 964 062c 4093 0000 		sts matrix+44,r20
 333:main.c        ****             matrix[5][1] = color3;
 965               		.stabn	68,0,333,.LM202-.LFBB2
 966               	.LM202:
 967 0630 5093 0000 		sts matrix+82+1,r21
 968 0634 4093 0000 		sts matrix+82,r20
 334:main.c        ****             matrix[5][6] = color3;
 969               		.stabn	68,0,334,.LM203-.LFBB2
 970               	.LM203:
 971 0638 5093 0000 		sts matrix+92+1,r21
 972 063c 4093 0000 		sts matrix+92,r20
 335:main.c        ****             matrix[6][2] = color3;
 973               		.stabn	68,0,335,.LM204-.LFBB2
 974               	.LM204:
 975 0640 5093 0000 		sts matrix+100+1,r21
GAS LISTING /tmp/cc2bZtJH.s 			page 24


 976 0644 4093 0000 		sts matrix+100,r20
 336:main.c        ****             matrix[6][5] = color3;
 977               		.stabn	68,0,336,.LM205-.LFBB2
 978               	.LM205:
 979 0648 5093 0000 		sts matrix+106+1,r21
 980 064c 4093 0000 		sts matrix+106,r20
 337:main.c        **** 
 338:main.c        ****             matrix[1][1] = color4;
 981               		.stabn	68,0,338,.LM206-.LFBB2
 982               	.LM206:
 983 0650 F093 0000 		sts matrix+18+1,r31
 984 0654 E093 0000 		sts matrix+18,r30
 339:main.c        ****             matrix[6][1] = color4;
 985               		.stabn	68,0,339,.LM207-.LFBB2
 986               	.LM207:
 987 0658 F093 0000 		sts matrix+98+1,r31
 988 065c E093 0000 		sts matrix+98,r30
 340:main.c        ****             matrix[6][6] = color4;
 989               		.stabn	68,0,340,.LM208-.LFBB2
 990               	.LM208:
 991 0660 F093 0000 		sts matrix+108+1,r31
 992 0664 E093 0000 		sts matrix+108,r30
 341:main.c        ****             matrix[1][6] = color4;
 993               		.stabn	68,0,341,.LM209-.LFBB2
 994               	.LM209:
 995 0668 F093 0000 		sts matrix+28+1,r31
 996 066c E093 0000 		sts matrix+28,r30
 342:main.c        **** 
 343:main.c        ****         break;
 997               		.stabn	68,0,343,.LM210-.LFBB2
 998               	.LM210:
 999 0670 0895      		ret
 1000               	.L15:
 344:main.c        ****         case 10:
 345:main.c        ****             matrix[0][3] = color;
 1001               		.stabn	68,0,345,.LM211-.LFBB2
 1002               	.LM211:
 1003 0672 7093 0000 		sts matrix+6+1,r23
 1004 0676 6093 0000 		sts matrix+6,r22
 346:main.c        ****             matrix[0][4] = color;
 1005               		.stabn	68,0,346,.LM212-.LFBB2
 1006               	.LM212:
 1007 067a 7093 0000 		sts matrix+8+1,r23
 1008 067e 6093 0000 		sts matrix+8,r22
 347:main.c        ****             matrix[3][0] = color;
 1009               		.stabn	68,0,347,.LM213-.LFBB2
 1010               	.LM213:
 1011 0682 7093 0000 		sts matrix+48+1,r23
 1012 0686 6093 0000 		sts matrix+48,r22
 348:main.c        ****             matrix[3][7] = color;
 1013               		.stabn	68,0,348,.LM214-.LFBB2
 1014               	.LM214:
 1015 068a 7093 0000 		sts matrix+62+1,r23
 1016 068e 6093 0000 		sts matrix+62,r22
 349:main.c        ****             matrix[4][0] = color;
 1017               		.stabn	68,0,349,.LM215-.LFBB2
 1018               	.LM215:
GAS LISTING /tmp/cc2bZtJH.s 			page 25


 1019 0692 7093 0000 		sts matrix+64+1,r23
 1020 0696 6093 0000 		sts matrix+64,r22
 350:main.c        ****             matrix[4][7] = color;
 1021               		.stabn	68,0,350,.LM216-.LFBB2
 1022               	.LM216:
 1023 069a 7093 0000 		sts matrix+78+1,r23
 1024 069e 6093 0000 		sts matrix+78,r22
 351:main.c        ****             matrix[7][3] = color;
 1025               		.stabn	68,0,351,.LM217-.LFBB2
 1026               	.LM217:
 1027 06a2 7093 0000 		sts matrix+118+1,r23
 1028 06a6 6093 0000 		sts matrix+118,r22
 352:main.c        ****             matrix[7][4] = color;
 1029               		.stabn	68,0,352,.LM218-.LFBB2
 1030               	.LM218:
 1031 06aa 7093 0000 		sts matrix+120+1,r23
 1032 06ae 6093 0000 		sts matrix+120,r22
 353:main.c        **** 
 354:main.c        ****             matrix[0][0] = color2;
 1033               		.stabn	68,0,354,.LM219-.LFBB2
 1034               	.LM219:
 1035 06b2 3093 0000 		sts matrix+1,r19
 1036 06b6 2093 0000 		sts matrix,r18
 355:main.c        ****             matrix[0][1] = color2;
 1037               		.stabn	68,0,355,.LM220-.LFBB2
 1038               	.LM220:
 1039 06ba 3093 0000 		sts matrix+2+1,r19
 1040 06be 2093 0000 		sts matrix+2,r18
 356:main.c        ****             matrix[0][6] = color2;
 1041               		.stabn	68,0,356,.LM221-.LFBB2
 1042               	.LM221:
 1043 06c2 3093 0000 		sts matrix+12+1,r19
 1044 06c6 2093 0000 		sts matrix+12,r18
 357:main.c        ****             matrix[0][7] = color2;
 1045               		.stabn	68,0,357,.LM222-.LFBB2
 1046               	.LM222:
 1047 06ca 3093 0000 		sts matrix+14+1,r19
 1048 06ce 2093 0000 		sts matrix+14,r18
 358:main.c        ****             matrix[1][0] = color2;
 1049               		.stabn	68,0,358,.LM223-.LFBB2
 1050               	.LM223:
 1051 06d2 3093 0000 		sts matrix+16+1,r19
 1052 06d6 2093 0000 		sts matrix+16,r18
 359:main.c        ****             matrix[1][7] = color2;
 1053               		.stabn	68,0,359,.LM224-.LFBB2
 1054               	.LM224:
 1055 06da 3093 0000 		sts matrix+30+1,r19
 1056 06de 2093 0000 		sts matrix+30,r18
 360:main.c        ****             matrix[7][7] = color2;
 1057               		.stabn	68,0,360,.LM225-.LFBB2
 1058               	.LM225:
 1059 06e2 3093 0000 		sts matrix+126+1,r19
 1060 06e6 2093 0000 		sts matrix+126,r18
 361:main.c        ****             matrix[7][6] = color2;
 1061               		.stabn	68,0,361,.LM226-.LFBB2
 1062               	.LM226:
 1063 06ea 3093 0000 		sts matrix+124+1,r19
GAS LISTING /tmp/cc2bZtJH.s 			page 26


 1064 06ee 2093 0000 		sts matrix+124,r18
 362:main.c        ****             matrix[7][1] = color2;
 1065               		.stabn	68,0,362,.LM227-.LFBB2
 1066               	.LM227:
 1067 06f2 3093 0000 		sts matrix+114+1,r19
 1068 06f6 2093 0000 		sts matrix+114,r18
 363:main.c        ****             matrix[7][0] = color2;
 1069               		.stabn	68,0,363,.LM228-.LFBB2
 1070               	.LM228:
 1071 06fa 3093 0000 		sts matrix+112+1,r19
 1072 06fe 2093 0000 		sts matrix+112,r18
 364:main.c        ****             matrix[6][7] = color2;
 1073               		.stabn	68,0,364,.LM229-.LFBB2
 1074               	.LM229:
 1075 0702 3093 0000 		sts matrix+110+1,r19
 1076 0706 2093 0000 		sts matrix+110,r18
 365:main.c        ****             matrix[6][0] = color2;
 1077               		.stabn	68,0,365,.LM230-.LFBB2
 1078               	.LM230:
 1079 070a 3093 0000 		sts matrix+96+1,r19
 1080 070e 2093 0000 		sts matrix+96,r18
 366:main.c        **** 
 367:main.c        ****             matrix[0][2] = color3;
 1081               		.stabn	68,0,367,.LM231-.LFBB2
 1082               	.LM231:
 1083 0712 5093 0000 		sts matrix+4+1,r21
 1084 0716 4093 0000 		sts matrix+4,r20
 368:main.c        ****             matrix[0][5] = color3;
 1085               		.stabn	68,0,368,.LM232-.LFBB2
 1086               	.LM232:
 1087 071a 5093 0000 		sts matrix+10+1,r21
 1088 071e 4093 0000 		sts matrix+10,r20
 369:main.c        ****             matrix[2][0] = color3;
 1089               		.stabn	68,0,369,.LM233-.LFBB2
 1090               	.LM233:
 1091 0722 5093 0000 		sts matrix+32+1,r21
 1092 0726 4093 0000 		sts matrix+32,r20
 370:main.c        ****             matrix[2][7] = color3;
 1093               		.stabn	68,0,370,.LM234-.LFBB2
 1094               	.LM234:
 1095 072a 5093 0000 		sts matrix+46+1,r21
 1096 072e 4093 0000 		sts matrix+46,r20
 371:main.c        ****             matrix[5][0] = color3;
 1097               		.stabn	68,0,371,.LM235-.LFBB2
 1098               	.LM235:
 1099 0732 5093 0000 		sts matrix+80+1,r21
 1100 0736 4093 0000 		sts matrix+80,r20
 372:main.c        ****             matrix[5][7] = color3;
 1101               		.stabn	68,0,372,.LM236-.LFBB2
 1102               	.LM236:
 1103 073a 5093 0000 		sts matrix+94+1,r21
 1104 073e 4093 0000 		sts matrix+94,r20
 373:main.c        ****             matrix[7][2] = color3;
 1105               		.stabn	68,0,373,.LM237-.LFBB2
 1106               	.LM237:
 1107 0742 5093 0000 		sts matrix+116+1,r21
 1108 0746 4093 0000 		sts matrix+116,r20
GAS LISTING /tmp/cc2bZtJH.s 			page 27


 374:main.c        ****             matrix[7][5] = color3;
 1109               		.stabn	68,0,374,.LM238-.LFBB2
 1110               	.LM238:
 1111 074a 5093 0000 		sts matrix+122+1,r21
 1112 074e 4093 0000 		sts matrix+122,r20
 375:main.c        ****             matrix[1][2] = color3;
 1113               		.stabn	68,0,375,.LM239-.LFBB2
 1114               	.LM239:
 1115 0752 5093 0000 		sts matrix+20+1,r21
 1116 0756 4093 0000 		sts matrix+20,r20
 376:main.c        ****             matrix[1][5] = color3;
 1117               		.stabn	68,0,376,.LM240-.LFBB2
 1118               	.LM240:
 1119 075a 5093 0000 		sts matrix+26+1,r21
 1120 075e 4093 0000 		sts matrix+26,r20
 377:main.c        ****             matrix[2][1] = color3;
 1121               		.stabn	68,0,377,.LM241-.LFBB2
 1122               	.LM241:
 1123 0762 5093 0000 		sts matrix+34+1,r21
 1124 0766 4093 0000 		sts matrix+34,r20
 378:main.c        ****             matrix[2][6] = color3;
 1125               		.stabn	68,0,378,.LM242-.LFBB2
 1126               	.LM242:
 1127 076a 5093 0000 		sts matrix+44+1,r21
 1128 076e 4093 0000 		sts matrix+44,r20
 379:main.c        ****             matrix[5][1] = color3;
 1129               		.stabn	68,0,379,.LM243-.LFBB2
 1130               	.LM243:
 1131 0772 5093 0000 		sts matrix+82+1,r21
 1132 0776 4093 0000 		sts matrix+82,r20
 380:main.c        ****             matrix[5][6] = color3;
 1133               		.stabn	68,0,380,.LM244-.LFBB2
 1134               	.LM244:
 1135 077a 5093 0000 		sts matrix+92+1,r21
 1136 077e 4093 0000 		sts matrix+92,r20
 381:main.c        ****             matrix[6][2] = color3;
 1137               		.stabn	68,0,381,.LM245-.LFBB2
 1138               	.LM245:
 1139 0782 5093 0000 		sts matrix+100+1,r21
 1140 0786 4093 0000 		sts matrix+100,r20
 382:main.c        ****             matrix[6][5] = color3;
 1141               		.stabn	68,0,382,.LM246-.LFBB2
 1142               	.LM246:
 1143 078a 5093 0000 		sts matrix+106+1,r21
 1144 078e 4093 0000 		sts matrix+106,r20
 383:main.c        **** 
 384:main.c        ****         break;
 1145               		.stabn	68,0,384,.LM247-.LFBB2
 1146               	.LM247:
 1147 0792 0895      		ret
 1148               	.L16:
 385:main.c        ****     case 11:
 386:main.c        ****             matrix[0][3] = color;
 1149               		.stabn	68,0,386,.LM248-.LFBB2
 1150               	.LM248:
 1151 0794 7093 0000 		sts matrix+6+1,r23
 1152 0798 6093 0000 		sts matrix+6,r22
GAS LISTING /tmp/cc2bZtJH.s 			page 28


 387:main.c        ****             matrix[0][4] = color;
 1153               		.stabn	68,0,387,.LM249-.LFBB2
 1154               	.LM249:
 1155 079c 7093 0000 		sts matrix+8+1,r23
 1156 07a0 6093 0000 		sts matrix+8,r22
 388:main.c        ****             matrix[3][0] = color;
 1157               		.stabn	68,0,388,.LM250-.LFBB2
 1158               	.LM250:
 1159 07a4 7093 0000 		sts matrix+48+1,r23
 1160 07a8 6093 0000 		sts matrix+48,r22
 389:main.c        ****             matrix[3][7] = color;
 1161               		.stabn	68,0,389,.LM251-.LFBB2
 1162               	.LM251:
 1163 07ac 7093 0000 		sts matrix+62+1,r23
 1164 07b0 6093 0000 		sts matrix+62,r22
 390:main.c        ****             matrix[4][0] = color;
 1165               		.stabn	68,0,390,.LM252-.LFBB2
 1166               	.LM252:
 1167 07b4 7093 0000 		sts matrix+64+1,r23
 1168 07b8 6093 0000 		sts matrix+64,r22
 391:main.c        ****             matrix[4][7] = color;
 1169               		.stabn	68,0,391,.LM253-.LFBB2
 1170               	.LM253:
 1171 07bc 7093 0000 		sts matrix+78+1,r23
 1172 07c0 6093 0000 		sts matrix+78,r22
 392:main.c        ****             matrix[7][3] = color;
 1173               		.stabn	68,0,392,.LM254-.LFBB2
 1174               	.LM254:
 1175 07c4 7093 0000 		sts matrix+118+1,r23
 1176 07c8 6093 0000 		sts matrix+118,r22
 393:main.c        ****             matrix[7][4] = color;
 1177               		.stabn	68,0,393,.LM255-.LFBB2
 1178               	.LM255:
 1179 07cc 7093 0000 		sts matrix+120+1,r23
 1180 07d0 6093 0000 		sts matrix+120,r22
 394:main.c        **** 
 395:main.c        ****             matrix[0][0] = color2;
 1181               		.stabn	68,0,395,.LM256-.LFBB2
 1182               	.LM256:
 1183 07d4 3093 0000 		sts matrix+1,r19
 1184 07d8 2093 0000 		sts matrix,r18
 396:main.c        ****             matrix[0][1] = color2;
 1185               		.stabn	68,0,396,.LM257-.LFBB2
 1186               	.LM257:
 1187 07dc 3093 0000 		sts matrix+2+1,r19
 1188 07e0 2093 0000 		sts matrix+2,r18
 397:main.c        ****             matrix[0][6] = color2;
 1189               		.stabn	68,0,397,.LM258-.LFBB2
 1190               	.LM258:
 1191 07e4 3093 0000 		sts matrix+12+1,r19
 1192 07e8 2093 0000 		sts matrix+12,r18
 398:main.c        ****             matrix[0][7] = color2;
 1193               		.stabn	68,0,398,.LM259-.LFBB2
 1194               	.LM259:
 1195 07ec 3093 0000 		sts matrix+14+1,r19
 1196 07f0 2093 0000 		sts matrix+14,r18
 399:main.c        ****             matrix[1][0] = color2;
GAS LISTING /tmp/cc2bZtJH.s 			page 29


 1197               		.stabn	68,0,399,.LM260-.LFBB2
 1198               	.LM260:
 1199 07f4 3093 0000 		sts matrix+16+1,r19
 1200 07f8 2093 0000 		sts matrix+16,r18
 400:main.c        ****             matrix[1][7] = color2;
 1201               		.stabn	68,0,400,.LM261-.LFBB2
 1202               	.LM261:
 1203 07fc 3093 0000 		sts matrix+30+1,r19
 1204 0800 2093 0000 		sts matrix+30,r18
 401:main.c        ****             matrix[7][7] = color2;
 1205               		.stabn	68,0,401,.LM262-.LFBB2
 1206               	.LM262:
 1207 0804 3093 0000 		sts matrix+126+1,r19
 1208 0808 2093 0000 		sts matrix+126,r18
 402:main.c        ****             matrix[7][6] = color2;
 1209               		.stabn	68,0,402,.LM263-.LFBB2
 1210               	.LM263:
 1211 080c 3093 0000 		sts matrix+124+1,r19
 1212 0810 2093 0000 		sts matrix+124,r18
 403:main.c        ****             matrix[7][1] = color2;
 1213               		.stabn	68,0,403,.LM264-.LFBB2
 1214               	.LM264:
 1215 0814 3093 0000 		sts matrix+114+1,r19
 1216 0818 2093 0000 		sts matrix+114,r18
 404:main.c        ****             matrix[7][0] = color2;
 1217               		.stabn	68,0,404,.LM265-.LFBB2
 1218               	.LM265:
 1219 081c 3093 0000 		sts matrix+112+1,r19
 1220 0820 2093 0000 		sts matrix+112,r18
 405:main.c        ****             matrix[6][7] = color2;
 1221               		.stabn	68,0,405,.LM266-.LFBB2
 1222               	.LM266:
 1223 0824 3093 0000 		sts matrix+110+1,r19
 1224 0828 2093 0000 		sts matrix+110,r18
 406:main.c        ****             matrix[6][0] = color2;
 1225               		.stabn	68,0,406,.LM267-.LFBB2
 1226               	.LM267:
 1227 082c 3093 0000 		sts matrix+96+1,r19
 1228 0830 2093 0000 		sts matrix+96,r18
 407:main.c        ****     break;
 1229               		.stabn	68,0,407,.LM268-.LFBB2
 1230               	.LM268:
 1231 0834 0895      		ret
 1232               	.L17:
 408:main.c        ****     case 12:
 409:main.c        ****             matrix[0][3] = color;
 1233               		.stabn	68,0,409,.LM269-.LFBB2
 1234               	.LM269:
 1235 0836 7093 0000 		sts matrix+6+1,r23
 1236 083a 6093 0000 		sts matrix+6,r22
 410:main.c        ****             matrix[0][4] = color;
 1237               		.stabn	68,0,410,.LM270-.LFBB2
 1238               	.LM270:
 1239 083e 7093 0000 		sts matrix+8+1,r23
 1240 0842 6093 0000 		sts matrix+8,r22
 411:main.c        ****             matrix[3][0] = color;
 1241               		.stabn	68,0,411,.LM271-.LFBB2
GAS LISTING /tmp/cc2bZtJH.s 			page 30


 1242               	.LM271:
 1243 0846 7093 0000 		sts matrix+48+1,r23
 1244 084a 6093 0000 		sts matrix+48,r22
 412:main.c        ****             matrix[3][7] = color;
 1245               		.stabn	68,0,412,.LM272-.LFBB2
 1246               	.LM272:
 1247 084e 7093 0000 		sts matrix+62+1,r23
 1248 0852 6093 0000 		sts matrix+62,r22
 413:main.c        ****             matrix[4][0] = color;
 1249               		.stabn	68,0,413,.LM273-.LFBB2
 1250               	.LM273:
 1251 0856 7093 0000 		sts matrix+64+1,r23
 1252 085a 6093 0000 		sts matrix+64,r22
 414:main.c        ****             matrix[4][7] = color;
 1253               		.stabn	68,0,414,.LM274-.LFBB2
 1254               	.LM274:
 1255 085e 7093 0000 		sts matrix+78+1,r23
 1256 0862 6093 0000 		sts matrix+78,r22
 415:main.c        ****             matrix[7][3] = color;
 1257               		.stabn	68,0,415,.LM275-.LFBB2
 1258               	.LM275:
 1259 0866 7093 0000 		sts matrix+118+1,r23
 1260 086a 6093 0000 		sts matrix+118,r22
 416:main.c        ****             matrix[7][4] = color;
 1261               		.stabn	68,0,416,.LM276-.LFBB2
 1262               	.LM276:
 1263 086e 7093 0000 		sts matrix+120+1,r23
 1264 0872 6093 0000 		sts matrix+120,r22
 1265               	.L4:
 1266 0876 0895      		ret
 1267               		.size	draw_circle, .-draw_circle
 1268               		.stabs	"color2:r(5,4)",64,0,96,18
 1269               		.stabs	"color3:r(5,4)",64,0,97,20
 1270               		.stabs	"color4:r(5,4)",64,0,98,30
 1271               		.stabn	192,0,0,.LFBB2-.LFBB2
 1272               		.stabn	224,0,0,.Lscope2-.LFBB2
 1273               	.Lscope2:
 1274               		.stabs	"",36,0,0,.Lscope2-.LFBB2
 1275               		.stabd	78,0,0
 1276               		.stabs	"draw_outline:F(0,15)",36,0,427,draw_outline
 1277               	.global	draw_outline
 1278               		.type	draw_outline, @function
 1279               	draw_outline:
 1280               		.stabd	46,0,0
 417:main.c        **** 
 418:main.c        ****     break;
 419:main.c        **** 
 420:main.c        **** 
 421:main.c        ****     }//end switch:
 422:main.c        **** 
 423:main.c        **** 
 424:main.c        **** 
 425:main.c        **** }
 426:main.c        **** 
 427:main.c        **** void draw_outline()
 428:main.c        **** {
 1281               		.stabn	68,0,428,.LM277-.LFBB3
GAS LISTING /tmp/cc2bZtJH.s 			page 31


 1282               	.LM277:
 1283               	.LFBB3:
 1284               	/* prologue: function */
 1285               	/* frame size = 0 */
 1286               	/* stack size = 0 */
 1287               	.L__stack_usage = 0
 429:main.c        ****     int i,j;
 430:main.c        ****     for(i=0;i<8;i++)
 431:main.c        ****     {
 432:main.c        ****       for(j=0;j<8;j++)
 433:main.c        ****       {
 434:main.c        ****         if(i==7 || i==0 || j==7 || j==0)
 435:main.c        ****           matrix[j][i] = wallbrightness;
 1288               		.stabn	68,0,435,.LM278-.LFBB3
 1289               	.LM278:
 1290 0878 E091 0000 		lds r30,wallbrightness
 1291 087c F091 0000 		lds r31,wallbrightness+1
 1292 0880 60E0      		ldi r22,lo8(matrix)
 1293 0882 70E0      		ldi r23,hi8(matrix)
 430:main.c        ****     for(i=0;i<8;i++)
 1294               		.stabn	68,0,430,.LM279-.LFBB3
 1295               	.LM279:
 1296 0884 20E0      		ldi r18,0
 1297 0886 30E0      		ldi r19,0
 1298 0888 00C0      		rjmp .L20
 1299               	.L23:
 434:main.c        ****         if(i==7 || i==0 || j==7 || j==0)
 1300               		.stabn	68,0,434,.LM280-.LFBB3
 1301               	.LM280:
 1302 088a 2730      		cpi r18,7
 1303 088c 3105      		cpc r19,__zero_reg__
 1304 088e 01F0      		breq .L21
 434:main.c        ****         if(i==7 || i==0 || j==7 || j==0)
 1305               		.stabn	68,0,434,.LM281-.LFBB3
 1306               	.LM281:
 1307 0890 2115      		cp r18,__zero_reg__
 1308 0892 3105      		cpc r19,__zero_reg__
 1309 0894 01F0      		breq .L21
 1310 0896 8730      		cpi r24,7
 1311 0898 9105      		cpc r25,__zero_reg__
 1312 089a 01F0      		breq .L21
 1313 089c 0097      		sbiw r24,0
 1314 089e 01F4      		brne .L22
 1315               	.L21:
 427:main.c        **** void draw_outline()
 1316               		.stabn	68,0,427,.LM282-.LFBB3
 1317               	.LM282:
 1318 08a0 DB01      		movw r26,r22
 1319 08a2 A40F      		add r26,r20
 1320 08a4 B51F      		adc r27,r21
 1321               		.stabn	68,0,435,.LM283-.LFBB3
 1322               	.LM283:
 1323 08a6 ED93      		st X+,r30
 1324 08a8 FC93      		st X,r31
 1325               	.L22:
 432:main.c        ****       for(j=0;j<8;j++)
 1326               		.stabn	68,0,432,.LM284-.LFBB3
GAS LISTING /tmp/cc2bZtJH.s 			page 32


 1327               	.LM284:
 1328 08aa 0196      		adiw r24,1
 1329 08ac 405F      		subi r20,-16
 1330 08ae 5F4F      		sbci r21,-1
 1331 08b0 8830      		cpi r24,8
 1332 08b2 9105      		cpc r25,__zero_reg__
 1333 08b4 01F4      		brne .L23
 430:main.c        ****     for(i=0;i<8;i++)
 1334               		.stabn	68,0,430,.LM285-.LFBB3
 1335               	.LM285:
 1336 08b6 2F5F      		subi r18,-1
 1337 08b8 3F4F      		sbci r19,-1
 1338 08ba 6E5F      		subi r22,-2
 1339 08bc 7F4F      		sbci r23,-1
 1340 08be 2830      		cpi r18,8
 1341 08c0 3105      		cpc r19,__zero_reg__
 1342 08c2 01F0      		breq .L19
 1343               	.L20:
 428:main.c        **** {
 1344               		.stabn	68,0,428,.LM286-.LFBB3
 1345               	.LM286:
 1346 08c4 40E0      		ldi r20,0
 1347 08c6 50E0      		ldi r21,0
 1348 08c8 80E0      		ldi r24,0
 1349 08ca 90E0      		ldi r25,0
 1350 08cc 00C0      		rjmp .L23
 1351               	.L19:
 1352 08ce 0895      		ret
 1353               		.size	draw_outline, .-draw_outline
 1354               		.stabs	"i:r(0,1)",64,0,429,18
 1355               		.stabs	"j:r(0,1)",64,0,429,24
 1356               		.stabn	192,0,0,.LFBB3-.LFBB3
 1357               		.stabn	224,0,0,.Lscope3-.LFBB3
 1358               	.Lscope3:
 1359               		.stabs	"",36,0,0,.Lscope3-.LFBB3
 1360               		.stabd	78,0,0
 1361               		.stabs	"update_sinecircle:F(0,15)",36,0,440,update_sinecircle
 1362               	.global	update_sinecircle
 1363               		.type	update_sinecircle, @function
 1364               	update_sinecircle:
 1365               		.stabd	46,0,0
 436:main.c        ****       }
 437:main.c        ****     }
 438:main.c        **** }
 439:main.c        **** 
 440:main.c        **** void update_sinecircle(){
 1366               		.stabn	68,0,440,.LM287-.LFBB4
 1367               	.LM287:
 1368               	.LFBB4:
 1369               	/* prologue: function */
 1370               	/* frame size = 0 */
 1371               	/* stack size = 0 */
 1372               	.L__stack_usage = 0
 441:main.c        ****     if(radius==12)
 1373               		.stabn	68,0,441,.LM288-.LFBB4
 1374               	.LM288:
 1375 08d0 8091 0000 		lds r24,radius
GAS LISTING /tmp/cc2bZtJH.s 			page 33


 1376 08d4 8C30      		cpi r24,lo8(12)
 1377 08d6 01F4      		brne .L36
 442:main.c        ****         radius = 0;
 1378               		.stabn	68,0,442,.LM289-.LFBB4
 1379               	.LM289:
 1380 08d8 1092 0000 		sts radius,__zero_reg__
 1381 08dc 00C0      		rjmp .L37
 1382               	.L36:
 443:main.c        ****     else
 444:main.c        ****         radius += 1; 
 1383               		.stabn	68,0,444,.LM290-.LFBB4
 1384               	.LM290:
 1385 08de 8F5F      		subi r24,lo8(-(1))
 1386 08e0 8093 0000 		sts radius,r24
 1387               	.L37:
 445:main.c        **** 
 446:main.c        ****     draw_circle(radius, wallbrightness);
 1388               		.stabn	68,0,446,.LM291-.LFBB4
 1389               	.LM291:
 1390 08e4 6091 0000 		lds r22,wallbrightness
 1391 08e8 7091 0000 		lds r23,wallbrightness+1
 1392 08ec 8091 0000 		lds r24,radius
 1393 08f0 00C0      		rjmp draw_circle
 1394               		.size	update_sinecircle, .-update_sinecircle
 1395               	.Lscope4:
 1396               		.stabs	"",36,0,0,.Lscope4-.LFBB4
 1397               		.stabd	78,0,0
 1398               		.stabs	"update_sine:F(0,15)",36,0,449,update_sine
 1399               	.global	update_sine
 1400               		.type	update_sine, @function
 1401               	update_sine:
 1402               		.stabd	46,0,0
 447:main.c        **** }//end update sinecircle
 448:main.c        **** 
 449:main.c        **** void update_sine(){    
 1403               		.stabn	68,0,449,.LM292-.LFBB5
 1404               	.LM292:
 1405               	.LFBB5:
 1406 08f2 AF92      		push r10
 1407 08f4 BF92      		push r11
 1408 08f6 CF92      		push r12
 1409 08f8 DF92      		push r13
 1410 08fa EF92      		push r14
 1411 08fc FF92      		push r15
 1412 08fe 0F93      		push r16
 1413 0900 1F93      		push r17
 1414 0902 CF93      		push r28
 1415 0904 DF93      		push r29
 1416               	/* prologue: function */
 1417               	/* frame size = 0 */
 1418               	/* stack size = 10 */
 1419               	.L__stack_usage = 10
 450:main.c        ****     uint8_t i,j;
 451:main.c        ****     for(i=0;i<8;i++)
 452:main.c        ****         for(j=0;j<8;j++)
 453:main.c        ****         {
 454:main.c        ****             if(sinemap[j][(i+sinecounter)%28] == 1)
GAS LISTING /tmp/cc2bZtJH.s 			page 34


 1420               		.stabn	68,0,454,.LM293-.LFBB5
 1421               	.LM293:
 1422 0906 C091 0000 		lds r28,sinecounter
 1423 090a AC2E      		mov r10,r28
 1424 090c B12C      		mov r11,__zero_reg__
 455:main.c        ****                 matrix[j][i] = wallbrightness;
 1425               		.stabn	68,0,455,.LM294-.LFBB5
 1426               	.LM294:
 1427 090e C090 0000 		lds r12,wallbrightness
 1428 0912 D090 0000 		lds r13,wallbrightness+1
 1429 0916 E0E0      		ldi r30,lo8(matrix)
 1430 0918 F0E0      		ldi r31,hi8(matrix)
 1431 091a 20E0      		ldi r18,0
 1432 091c 30E0      		ldi r19,0
 449:main.c        **** void update_sine(){    
 1433               		.stabn	68,0,449,.LM295-.LFBB5
 1434               	.LM295:
 1435 091e 7501      		movw r14,r10
 454:main.c        ****             if(sinemap[j][(i+sinecounter)%28] == 1)
 1436               		.stabn	68,0,454,.LM296-.LFBB5
 1437               	.LM296:
 1438 0920 0CE1      		ldi r16,lo8(28)
 1439 0922 10E0      		ldi r17,0
 1440 0924 00C0      		rjmp .L39
 1441               	.L41:
 449:main.c        **** void update_sine(){    
 1442               		.stabn	68,0,449,.LM297-.LFBB5
 1443               	.LM297:
 1444 0926 BC01      		movw r22,r24
 1445 0928 640F      		add r22,r20
 1446 092a 751F      		adc r23,r21
 454:main.c        ****             if(sinemap[j][(i+sinecounter)%28] == 1)
 1447               		.stabn	68,0,454,.LM298-.LFBB5
 1448               	.LM298:
 1449 092c EB01      		movw r28,r22
 1450 092e 6881      		ld r22,Y
 1451 0930 6130      		cpi r22,lo8(1)
 1452 0932 01F4      		brne .L40
 449:main.c        **** void update_sine(){    
 1453               		.stabn	68,0,449,.LM299-.LFBB5
 1454               	.LM299:
 1455 0934 BF01      		movw r22,r30
 1456 0936 6A0F      		add r22,r26
 1457 0938 7B1F      		adc r23,r27
 1458               		.stabn	68,0,455,.LM300-.LFBB5
 1459               	.LM300:
 1460 093a EB01      		movw r28,r22
 1461 093c D982      		std Y+1,r13
 1462 093e C882      		st Y,r12
 1463               	.L40:
 1464 0940 445E      		subi r20,-28
 1465 0942 5F4F      		sbci r21,-1
 1466 0944 5096      		adiw r26,16
 452:main.c        ****         for(j=0;j<8;j++)
 1467               		.stabn	68,0,452,.LM301-.LFBB5
 1468               	.LM301:
 1469 0946 403E      		cpi r20,-32
GAS LISTING /tmp/cc2bZtJH.s 			page 35


 1470 0948 5105      		cpc r21,__zero_reg__
 1471 094a 01F4      		brne .L41
 1472 094c 2F5F      		subi r18,-1
 1473 094e 3F4F      		sbci r19,-1
 1474 0950 3296      		adiw r30,2
 451:main.c        ****     for(i=0;i<8;i++)
 1475               		.stabn	68,0,451,.LM302-.LFBB5
 1476               	.LM302:
 1477 0952 2830      		cpi r18,8
 1478 0954 3105      		cpc r19,__zero_reg__
 1479 0956 01F0      		breq .L42
 1480               	.L39:
 449:main.c        **** void update_sine(){    
 1481               		.stabn	68,0,449,.LM303-.LFBB5
 1482               	.LM303:
 1483 0958 C901      		movw r24,r18
 1484 095a 8E0D      		add r24,r14
 1485 095c 9F1D      		adc r25,r15
 454:main.c        ****             if(sinemap[j][(i+sinecounter)%28] == 1)
 1486               		.stabn	68,0,454,.LM304-.LFBB5
 1487               	.LM304:
 1488 095e B801      		movw r22,r16
 1489 0960 00D0      		rcall __divmodhi4
 1490 0962 A0E0      		ldi r26,0
 1491 0964 B0E0      		ldi r27,0
 1492 0966 40E0      		ldi r20,0
 1493 0968 50E0      		ldi r21,0
 449:main.c        **** void update_sine(){    
 1494               		.stabn	68,0,449,.LM305-.LFBB5
 1495               	.LM305:
 1496 096a 8050      		subi r24,lo8(-(sinemap))
 1497 096c 9040      		sbci r25,hi8(-(sinemap))
 1498 096e 00C0      		rjmp .L41
 1499               	.L42:
 456:main.c        ****         }
 457:main.c        ****     sinecounter = (sinecounter+1)%28;  
 1500               		.stabn	68,0,457,.LM306-.LFBB5
 1501               	.LM306:
 1502 0970 C501      		movw r24,r10
 1503 0972 0196      		adiw r24,1
 1504 0974 6CE1      		ldi r22,lo8(28)
 1505 0976 70E0      		ldi r23,0
 1506 0978 00D0      		rcall __divmodhi4
 1507 097a 8093 0000 		sts sinecounter,r24
 1508               	/* epilogue start */
 458:main.c        **** }
 1509               		.stabn	68,0,458,.LM307-.LFBB5
 1510               	.LM307:
 1511 097e DF91      		pop r29
 1512 0980 CF91      		pop r28
 1513 0982 1F91      		pop r17
 1514 0984 0F91      		pop r16
 1515 0986 FF90      		pop r15
 1516 0988 EF90      		pop r14
 1517 098a DF90      		pop r13
 1518 098c CF90      		pop r12
 1519 098e BF90      		pop r11
GAS LISTING /tmp/cc2bZtJH.s 			page 36


 1520 0990 AF90      		pop r10
 1521 0992 0895      		ret
 1522               		.size	update_sine, .-update_sine
 1523               	.Lscope5:
 1524               		.stabs	"",36,0,0,.Lscope5-.LFBB5
 1525               		.stabd	78,0,0
 1526               		.stabs	"update_smiley:F(0,15)",36,0,461,update_smiley
 1527               	.global	update_smiley
 1528               		.type	update_smiley, @function
 1529               	update_smiley:
 1530               		.stabd	46,0,0
 459:main.c        **** 
 460:main.c        **** 
 461:main.c        **** void update_smiley(){
 1531               		.stabn	68,0,461,.LM308-.LFBB6
 1532               	.LM308:
 1533               	.LFBB6:
 1534               	/* prologue: function */
 1535               	/* frame size = 0 */
 1536               	/* stack size = 0 */
 1537               	.L__stack_usage = 0
 462:main.c        ****     uint8_t i,j;
 463:main.c        ****     for(j=0;j<8;j++)
 464:main.c        ****         for(i=0;i<8;i++)
 465:main.c        ****         {
 466:main.c        ****             if(smileymap[j][i] == 1)
 467:main.c        ****                 matrix[j][i] = wallbrightness;
 1538               		.stabn	68,0,467,.LM309-.LFBB6
 1539               	.LM309:
 1540 0994 6091 0000 		lds r22,wallbrightness
 1541 0998 7091 0000 		lds r23,wallbrightness+1
 1542 099c 20E0      		ldi r18,lo8(smileymap)
 1543 099e 30E0      		ldi r19,hi8(smileymap)
 1544 09a0 40E0      		ldi r20,lo8(matrix)
 1545 09a2 50E0      		ldi r21,hi8(matrix)
 1546 09a4 00C0      		rjmp .L45
 1547               	.L47:
 461:main.c        **** void update_smiley(){
 1548               		.stabn	68,0,461,.LM310-.LFBB6
 1549               	.LM310:
 1550 09a6 F901      		movw r30,r18
 1551 09a8 E80F      		add r30,r24
 1552 09aa F91F      		adc r31,r25
 466:main.c        ****             if(smileymap[j][i] == 1)
 1553               		.stabn	68,0,466,.LM311-.LFBB6
 1554               	.LM311:
 1555 09ac E081      		ld r30,Z
 1556 09ae E130      		cpi r30,lo8(1)
 1557 09b0 01F4      		brne .L46
 461:main.c        **** void update_smiley(){
 1558               		.stabn	68,0,461,.LM312-.LFBB6
 1559               	.LM312:
 1560 09b2 FC01      		movw r30,r24
 1561 09b4 EE0F      		lsl r30
 1562 09b6 FF1F      		rol r31
 1563 09b8 E40F      		add r30,r20
 1564 09ba F51F      		adc r31,r21
GAS LISTING /tmp/cc2bZtJH.s 			page 37


 1565               		.stabn	68,0,467,.LM313-.LFBB6
 1566               	.LM313:
 1567 09bc 7183      		std Z+1,r23
 1568 09be 6083      		st Z,r22
 1569               	.L46:
 1570 09c0 0196      		adiw r24,1
 464:main.c        ****         for(i=0;i<8;i++)
 1571               		.stabn	68,0,464,.LM314-.LFBB6
 1572               	.LM314:
 1573 09c2 8830      		cpi r24,8
 1574 09c4 9105      		cpc r25,__zero_reg__
 1575 09c6 01F4      		brne .L47
 1576 09c8 285F      		subi r18,-8
 1577 09ca 3F4F      		sbci r19,-1
 1578 09cc 405F      		subi r20,-16
 1579 09ce 5F4F      		sbci r21,-1
 463:main.c        ****     for(j=0;j<8;j++)
 1580               		.stabn	68,0,463,.LM315-.LFBB6
 1581               	.LM315:
 1582 09d0 80E0      		ldi r24,hi8(smileymap+64)
 1583 09d2 2030      		cpi r18,lo8(smileymap+64)
 1584 09d4 3807      		cpc r19,r24
 1585 09d6 01F0      		breq .L44
 1586               	.L45:
 461:main.c        **** void update_smiley(){
 1587               		.stabn	68,0,461,.LM316-.LFBB6
 1588               	.LM316:
 1589 09d8 80E0      		ldi r24,0
 1590 09da 90E0      		ldi r25,0
 1591 09dc 00C0      		rjmp .L47
 1592               	.L44:
 1593 09de 0895      		ret
 1594               		.size	update_smiley, .-update_smiley
 1595               	.Lscope6:
 1596               		.stabs	"",36,0,0,.Lscope6-.LFBB6
 1597               		.stabd	78,0,0
 1598               		.stabs	"update_bouncer:F(0,15)",36,0,471,update_bouncer
 1599               	.global	update_bouncer
 1600               		.type	update_bouncer, @function
 1601               	update_bouncer:
 1602               		.stabd	46,0,0
 468:main.c        ****         }
 469:main.c        **** }
 470:main.c        **** 
 471:main.c        **** void update_bouncer(){
 1603               		.stabn	68,0,471,.LM317-.LFBB7
 1604               	.LM317:
 1605               	.LFBB7:
 1606               	/* prologue: function */
 1607               	/* frame size = 0 */
 1608               	/* stack size = 0 */
 1609               	.L__stack_usage = 0
 472:main.c        ****     if(dirx == 1)
 1610               		.stabn	68,0,472,.LM318-.LFBB7
 1611               	.LM318:
 1612 09e0 9091 0000 		lds r25,dirx
 1613 09e4 8091 0000 		lds r24,posx
GAS LISTING /tmp/cc2bZtJH.s 			page 38


 1614 09e8 9130      		cpi r25,lo8(1)
 1615 09ea 01F4      		brne .L51
 473:main.c        ****       {
 474:main.c        ****         if(posx == 7)
 1616               		.stabn	68,0,474,.LM319-.LFBB7
 1617               	.LM319:
 1618 09ec 8730      		cpi r24,lo8(7)
 1619 09ee 01F4      		brne .L52
 475:main.c        ****         {
 476:main.c        ****           dirx = 0;
 1620               		.stabn	68,0,476,.LM320-.LFBB7
 1621               	.LM320:
 1622 09f0 1092 0000 		sts dirx,__zero_reg__
 477:main.c        ****           posx -= 2;
 1623               		.stabn	68,0,477,.LM321-.LFBB7
 1624               	.LM321:
 1625 09f4 85E0      		ldi r24,lo8(5)
 1626 09f6 00C0      		rjmp .L59
 1627               	.L52:
 478:main.c        ****         }else posx += 1;
 1628               		.stabn	68,0,478,.LM322-.LFBB7
 1629               	.LM322:
 1630 09f8 8F5F      		subi r24,lo8(-(1))
 1631 09fa 00C0      		rjmp .L59
 1632               	.L51:
 479:main.c        ****       }
 480:main.c        ****       else{
 481:main.c        ****         if(posx == 0)
 1633               		.stabn	68,0,481,.LM323-.LFBB7
 1634               	.LM323:
 1635 09fc 8111      		cpse r24,__zero_reg__
 1636 09fe 00C0      		rjmp .L54
 482:main.c        ****         {
 483:main.c        ****           dirx = 1;
 1637               		.stabn	68,0,483,.LM324-.LFBB7
 1638               	.LM324:
 1639 0a00 81E0      		ldi r24,lo8(1)
 1640 0a02 8093 0000 		sts dirx,r24
 484:main.c        ****           posx += 2;
 1641               		.stabn	68,0,484,.LM325-.LFBB7
 1642               	.LM325:
 1643 0a06 82E0      		ldi r24,lo8(2)
 1644 0a08 00C0      		rjmp .L59
 1645               	.L54:
 485:main.c        ****         }
 486:main.c        ****         else posx -= 1;
 1646               		.stabn	68,0,486,.LM326-.LFBB7
 1647               	.LM326:
 1648 0a0a 8150      		subi r24,lo8(-(-1))
 1649               	.L59:
 1650 0a0c 8093 0000 		sts posx,r24
 487:main.c        ****       }
 488:main.c        **** 
 489:main.c        ****       if(diry == 1)
 1651               		.stabn	68,0,489,.LM327-.LFBB7
 1652               	.LM327:
 1653 0a10 9091 0000 		lds r25,diry
GAS LISTING /tmp/cc2bZtJH.s 			page 39


 1654 0a14 8091 0000 		lds r24,posy
 1655 0a18 9130      		cpi r25,lo8(1)
 1656 0a1a 01F4      		brne .L55
 490:main.c        ****       {
 491:main.c        ****         if(posy == 7)
 1657               		.stabn	68,0,491,.LM328-.LFBB7
 1658               	.LM328:
 1659 0a1c 8730      		cpi r24,lo8(7)
 1660 0a1e 01F4      		brne .L56
 492:main.c        ****         {
 493:main.c        ****           diry = 0;
 1661               		.stabn	68,0,493,.LM329-.LFBB7
 1662               	.LM329:
 1663 0a20 1092 0000 		sts diry,__zero_reg__
 494:main.c        ****           posy -= 1;
 1664               		.stabn	68,0,494,.LM330-.LFBB7
 1665               	.LM330:
 1666 0a24 86E0      		ldi r24,lo8(6)
 1667 0a26 00C0      		rjmp .L60
 1668               	.L56:
 495:main.c        ****         }else posy += 1;
 1669               		.stabn	68,0,495,.LM331-.LFBB7
 1670               	.LM331:
 1671 0a28 8F5F      		subi r24,lo8(-(1))
 1672 0a2a 00C0      		rjmp .L60
 1673               	.L55:
 496:main.c        ****       }
 497:main.c        ****       else{
 498:main.c        ****         if(posy == 0)
 1674               		.stabn	68,0,498,.LM332-.LFBB7
 1675               	.LM332:
 1676 0a2c 8111      		cpse r24,__zero_reg__
 1677 0a2e 00C0      		rjmp .L58
 499:main.c        ****         {
 500:main.c        ****           diry = 1;
 1678               		.stabn	68,0,500,.LM333-.LFBB7
 1679               	.LM333:
 1680 0a30 81E0      		ldi r24,lo8(1)
 1681 0a32 8093 0000 		sts diry,r24
 1682 0a36 00C0      		rjmp .L60
 1683               	.L58:
 501:main.c        ****           posy += 1;
 502:main.c        ****         }
 503:main.c        ****         else posy -= 1;
 1684               		.stabn	68,0,503,.LM334-.LFBB7
 1685               	.LM334:
 1686 0a38 8150      		subi r24,lo8(-(-1))
 1687               	.L60:
 1688 0a3a 8093 0000 		sts posy,r24
 504:main.c        ****       }
 505:main.c        **** 
 506:main.c        ****       draw_outline();
 1689               		.stabn	68,0,506,.LM335-.LFBB7
 1690               	.LM335:
 1691 0a3e 00D0      		rcall draw_outline
 507:main.c        ****       matrix[posy][posx] = 0x00ff;
 1692               		.stabn	68,0,507,.LM336-.LFBB7
GAS LISTING /tmp/cc2bZtJH.s 			page 40


 1693               	.LM336:
 1694 0a40 8091 0000 		lds r24,posx
 1695 0a44 E091 0000 		lds r30,posy
 1696 0a48 98E0      		ldi r25,lo8(8)
 1697 0a4a E99F      		mul r30,r25
 1698 0a4c F001      		movw r30,r0
 1699 0a4e 1124      		clr __zero_reg__
 1700 0a50 E80F      		add r30,r24
 1701 0a52 F11D      		adc r31,__zero_reg__
 1702 0a54 EE0F      		lsl r30
 1703 0a56 FF1F      		rol r31
 1704 0a58 E050      		subi r30,lo8(-(matrix))
 1705 0a5a F040      		sbci r31,hi8(-(matrix))
 1706 0a5c 8FEF      		ldi r24,lo8(-1)
 1707 0a5e 90E0      		ldi r25,0
 1708 0a60 9183      		std Z+1,r25
 1709 0a62 8083      		st Z,r24
 1710 0a64 0895      		ret
 1711               		.size	update_bouncer, .-update_bouncer
 1712               	.Lscope7:
 1713               		.stabs	"",36,0,0,.Lscope7-.LFBB7
 1714               		.stabd	78,0,0
 1715               		.stabs	"configure_sine:F(0,15)",36,0,510,configure_sine
 1716               	.global	configure_sine
 1717               		.type	configure_sine, @function
 1718               	configure_sine:
 1719               		.stabd	46,0,0
 508:main.c        **** }
 509:main.c        **** 
 510:main.c        **** void configure_sine(){
 1720               		.stabn	68,0,510,.LM337-.LFBB8
 1721               	.LM337:
 1722               	.LFBB8:
 1723               	/* prologue: function */
 1724               	/* frame size = 0 */
 1725               	/* stack size = 0 */
 1726               	.L__stack_usage = 0
 511:main.c        ****     cli();
 1727               		.stabn	68,0,511,.LM338-.LFBB8
 1728               	.LM338:
 1729               	/* #APP */
 1730               	 ;  511 "main.c" 1
 1731 0a66 F894      		cli
 1732               	 ;  0 "" 2
 512:main.c        ****     OCR1A = 0x02ff;
 1733               		.stabn	68,0,512,.LM339-.LFBB8
 1734               	.LM339:
 1735               	/* #NOAPP */
 1736 0a68 8FEF      		ldi r24,lo8(-1)
 1737 0a6a 92E0      		ldi r25,lo8(2)
 1738 0a6c 9093 8900 		sts 136+1,r25
 1739 0a70 8093 8800 		sts 136,r24
 513:main.c        ****     TCNT1 = 0;
 1740               		.stabn	68,0,513,.LM340-.LFBB8
 1741               	.LM340:
 1742 0a74 1092 8500 		sts 132+1,__zero_reg__
 1743 0a78 1092 8400 		sts 132,__zero_reg__
GAS LISTING /tmp/cc2bZtJH.s 			page 41


 514:main.c        ****     sei();
 1744               		.stabn	68,0,514,.LM341-.LFBB8
 1745               	.LM341:
 1746               	/* #APP */
 1747               	 ;  514 "main.c" 1
 1748 0a7c 7894      		sei
 1749               	 ;  0 "" 2
 515:main.c        ****     maxtimer = 0x0200;
 1750               		.stabn	68,0,515,.LM342-.LFBB8
 1751               	.LM342:
 1752               	/* #NOAPP */
 1753 0a7e 80E0      		ldi r24,0
 1754 0a80 92E0      		ldi r25,lo8(2)
 1755 0a82 9093 0000 		sts maxtimer+1,r25
 1756 0a86 8093 0000 		sts maxtimer,r24
 1757 0a8a 0895      		ret
 1758               		.size	configure_sine, .-configure_sine
 1759               	.Lscope8:
 1760               		.stabs	"",36,0,0,.Lscope8-.LFBB8
 1761               		.stabd	78,0,0
 1762               		.stabs	"configure_timer0:F(0,15)",36,0,518,configure_timer0
 1763               	.global	configure_timer0
 1764               		.type	configure_timer0, @function
 1765               	configure_timer0:
 1766               		.stabd	46,0,0
 516:main.c        **** }
 517:main.c        **** 
 518:main.c        **** void configure_timer0()
 519:main.c        **** {
 1767               		.stabn	68,0,519,.LM343-.LFBB9
 1768               	.LM343:
 1769               	.LFBB9:
 1770               	/* prologue: function */
 1771               	/* frame size = 0 */
 1772               	/* stack size = 0 */
 1773               	.L__stack_usage = 0
 520:main.c        ****   cli();
 1774               		.stabn	68,0,520,.LM344-.LFBB9
 1775               	.LM344:
 1776               	/* #APP */
 1777               	 ;  520 "main.c" 1
 1778 0a8c F894      		cli
 1779               	 ;  0 "" 2
 521:main.c        ****   TCCR0A = 0;
 1780               		.stabn	68,0,521,.LM345-.LFBB9
 1781               	.LM345:
 1782               	/* #NOAPP */
 1783 0a8e 14BC      		out 0x24,__zero_reg__
 522:main.c        ****   TCCR0B = 0;
 1784               		.stabn	68,0,522,.LM346-.LFBB9
 1785               	.LM346:
 1786 0a90 15BC      		out 0x25,__zero_reg__
 523:main.c        ****   TIMSK0 = 0; //Clear registers
 1787               		.stabn	68,0,523,.LM347-.LFBB9
 1788               	.LM347:
 1789 0a92 EEE6      		ldi r30,lo8(110)
 1790 0a94 F0E0      		ldi r31,0
GAS LISTING /tmp/cc2bZtJH.s 			page 42


 1791 0a96 1082      		st Z,__zero_reg__
 524:main.c        ****   TCNT0 = 0; //reset timer
 1792               		.stabn	68,0,524,.LM348-.LFBB9
 1793               	.LM348:
 1794 0a98 16BC      		out 0x26,__zero_reg__
 525:main.c        **** 
 526:main.c        ****   OCR0A = 0xff;
 1795               		.stabn	68,0,526,.LM349-.LFBB9
 1796               	.LM349:
 1797 0a9a 8FEF      		ldi r24,lo8(-1)
 1798 0a9c 87BD      		out 0x27,r24
 527:main.c        ****   TIMSK0 |= BS(OCIE1A); //enable COMPA1 ISR
 1799               		.stabn	68,0,527,.LM350-.LFBB9
 1800               	.LM350:
 1801 0a9e 8081      		ld r24,Z
 1802 0aa0 8260      		ori r24,lo8(2)
 1803 0aa2 8083      		st Z,r24
 528:main.c        ****   //TCCR0A |= BS(WGM11);//not needed since not toggling anything
 529:main.c        ****   //TCCR0B |= BS(CS12)|BS(CS10); //1024 prescaler, must be configured
 530:main.c        ****   TCCR0B |= BS(CS02)|BS(CS00)|BS(WGM02);
 1804               		.stabn	68,0,530,.LM351-.LFBB9
 1805               	.LM351:
 1806 0aa4 85B5      		in r24,0x25
 1807 0aa6 8D60      		ori r24,lo8(13)
 1808 0aa8 85BD      		out 0x25,r24
 531:main.c        ****   sei();
 1809               		.stabn	68,0,531,.LM352-.LFBB9
 1810               	.LM352:
 1811               	/* #APP */
 1812               	 ;  531 "main.c" 1
 1813 0aaa 7894      		sei
 1814               	 ;  0 "" 2
 1815               	/* #NOAPP */
 1816 0aac 0895      		ret
 1817               		.size	configure_timer0, .-configure_timer0
 1818               	.Lscope9:
 1819               		.stabs	"",36,0,0,.Lscope9-.LFBB9
 1820               		.stabd	78,0,0
 1821               		.stabs	"configure_timer1:F(0,15)",36,0,534,configure_timer1
 1822               	.global	configure_timer1
 1823               		.type	configure_timer1, @function
 1824               	configure_timer1:
 1825               		.stabd	46,0,0
 532:main.c        **** }
 533:main.c        **** 
 534:main.c        **** void configure_timer1()
 535:main.c        **** {
 1826               		.stabn	68,0,535,.LM353-.LFBB10
 1827               	.LM353:
 1828               	.LFBB10:
 1829               	/* prologue: function */
 1830               	/* frame size = 0 */
 1831               	/* stack size = 0 */
 1832               	.L__stack_usage = 0
 536:main.c        ****   cli();
 1833               		.stabn	68,0,536,.LM354-.LFBB10
 1834               	.LM354:
GAS LISTING /tmp/cc2bZtJH.s 			page 43


 1835               	/* #APP */
 1836               	 ;  536 "main.c" 1
 1837 0aae F894      		cli
 1838               	 ;  0 "" 2
 537:main.c        ****   TCCR1A = 0;
 1839               		.stabn	68,0,537,.LM355-.LFBB10
 1840               	.LM355:
 1841               	/* #NOAPP */
 1842 0ab0 1092 8000 		sts 128,__zero_reg__
 538:main.c        ****   TCCR1B = 0;
 1843               		.stabn	68,0,538,.LM356-.LFBB10
 1844               	.LM356:
 1845 0ab4 E1E8      		ldi r30,lo8(-127)
 1846 0ab6 F0E0      		ldi r31,0
 1847 0ab8 1082      		st Z,__zero_reg__
 539:main.c        ****   TIMSK1 = 0; //Clear registers
 1848               		.stabn	68,0,539,.LM357-.LFBB10
 1849               	.LM357:
 1850 0aba AFE6      		ldi r26,lo8(111)
 1851 0abc B0E0      		ldi r27,0
 1852 0abe 1C92      		st X,__zero_reg__
 540:main.c        ****   TCNT1 = 0; //reset timer
 1853               		.stabn	68,0,540,.LM358-.LFBB10
 1854               	.LM358:
 1855 0ac0 1092 8500 		sts 132+1,__zero_reg__
 1856 0ac4 1092 8400 		sts 132,__zero_reg__
 541:main.c        **** 
 542:main.c        ****   OCR1A = 0x0fff;
 1857               		.stabn	68,0,542,.LM359-.LFBB10
 1858               	.LM359:
 1859 0ac8 8FEF      		ldi r24,lo8(-1)
 1860 0aca 9FE0      		ldi r25,lo8(15)
 1861 0acc 9093 8900 		sts 136+1,r25
 1862 0ad0 8093 8800 		sts 136,r24
 543:main.c        ****   TIMSK1 |= BS(OCIE1A); //enable COMPA1 ISR
 1863               		.stabn	68,0,543,.LM360-.LFBB10
 1864               	.LM360:
 1865 0ad4 8C91      		ld r24,X
 1866 0ad6 8260      		ori r24,lo8(2)
 1867 0ad8 8C93      		st X,r24
 544:main.c        ****   //TCCR0A |= BS(WGM11);//not needed since not toggling anything
 545:main.c        ****   //TCCR0B |= BS(CS12)|BS(CS10); //1024 prescaler, must be configured
 546:main.c        ****   TCCR1B |= BS(CS12)|BS(WGM12);
 1868               		.stabn	68,0,546,.LM361-.LFBB10
 1869               	.LM361:
 1870 0ada 8081      		ld r24,Z
 1871 0adc 8C60      		ori r24,lo8(12)
 1872 0ade 8083      		st Z,r24
 547:main.c        ****   sei();
 1873               		.stabn	68,0,547,.LM362-.LFBB10
 1874               	.LM362:
 1875               	/* #APP */
 1876               	 ;  547 "main.c" 1
 1877 0ae0 7894      		sei
 1878               	 ;  0 "" 2
 1879               	/* #NOAPP */
 1880 0ae2 0895      		ret
GAS LISTING /tmp/cc2bZtJH.s 			page 44


 1881               		.size	configure_timer1, .-configure_timer1
 1882               	.Lscope10:
 1883               		.stabs	"",36,0,0,.Lscope10-.LFBB10
 1884               		.stabd	78,0,0
 1885               		.stabs	"setup:F(0,15)",36,0,550,setup
 1886               	.global	setup
 1887               		.type	setup, @function
 1888               	setup:
 1889               		.stabd	46,0,0
 548:main.c        **** }
 549:main.c        **** 
 550:main.c        **** void setup()
 551:main.c        **** {
 1890               		.stabn	68,0,551,.LM363-.LFBB11
 1891               	.LM363:
 1892               	.LFBB11:
 1893               	/* prologue: function */
 1894               	/* frame size = 0 */
 1895               	/* stack size = 0 */
 1896               	.L__stack_usage = 0
 552:main.c        ****     erase_screen(0x0000);
 1897               		.stabn	68,0,552,.LM364-.LFBB11
 1898               	.LM364:
 1899 0ae4 80E0      		ldi r24,0
 1900 0ae6 90E0      		ldi r25,0
 1901 0ae8 00D0      		rcall erase_screen
 553:main.c        ****     //state = SINECIRCLE;
 554:main.c        ****     state = SINE;
 1902               		.stabn	68,0,554,.LM365-.LFBB11
 1903               	.LM365:
 1904 0aea 82E0      		ldi r24,lo8(2)
 1905 0aec 8093 0000 		sts state,r24
 555:main.c        **** 
 556:main.c        ****     //bouncer variables
 557:main.c        ****     posx = 1;
 1906               		.stabn	68,0,557,.LM366-.LFBB11
 1907               	.LM366:
 1908 0af0 81E0      		ldi r24,lo8(1)
 1909 0af2 8093 0000 		sts posx,r24
 558:main.c        ****     posy = 0;
 1910               		.stabn	68,0,558,.LM367-.LFBB11
 1911               	.LM367:
 1912 0af6 1092 0000 		sts posy,__zero_reg__
 559:main.c        ****     dirx = 0;
 1913               		.stabn	68,0,559,.LM368-.LFBB11
 1914               	.LM368:
 1915 0afa 1092 0000 		sts dirx,__zero_reg__
 560:main.c        ****     diry = 0;
 1916               		.stabn	68,0,560,.LM369-.LFBB11
 1917               	.LM369:
 1918 0afe 1092 0000 		sts diry,__zero_reg__
 561:main.c        ****     wallbrightness = 0x0000;
 1919               		.stabn	68,0,561,.LM370-.LFBB11
 1920               	.LM370:
 1921 0b02 1092 0000 		sts wallbrightness+1,__zero_reg__
 1922 0b06 1092 0000 		sts wallbrightness,__zero_reg__
 562:main.c        ****     delay = 0;
GAS LISTING /tmp/cc2bZtJH.s 			page 45


 1923               		.stabn	68,0,562,.LM371-.LFBB11
 1924               	.LM371:
 1925 0b0a 1092 0000 		sts delay+1,__zero_reg__
 1926 0b0e 1092 0000 		sts delay,__zero_reg__
 563:main.c        **** 
 564:main.c        ****     //circle variables
 565:main.c        ****     radius = 0;
 1927               		.stabn	68,0,565,.LM372-.LFBB11
 1928               	.LM372:
 1929 0b12 1092 0000 		sts radius,__zero_reg__
 566:main.c        **** 
 567:main.c        ****     //sine var
 568:main.c        ****     sinecounter = 0;
 1930               		.stabn	68,0,568,.LM373-.LFBB11
 1931               	.LM373:
 1932 0b16 1092 0000 		sts sinecounter,__zero_reg__
 569:main.c        ****     
 570:main.c        ****     //configure timer configuration
 571:main.c        ****     configure_timer0();
 1933               		.stabn	68,0,571,.LM374-.LFBB11
 1934               	.LM374:
 1935 0b1a 00D0      		rcall configure_timer0
 572:main.c        ****     configure_timer1();
 1936               		.stabn	68,0,572,.LM375-.LFBB11
 1937               	.LM375:
 1938 0b1c 00D0      		rcall configure_timer1
 573:main.c        **** 
 574:main.c        ****     configure_sine(); 
 1939               		.stabn	68,0,574,.LM376-.LFBB11
 1940               	.LM376:
 1941 0b1e 00C0      		rjmp configure_sine
 1942               		.size	setup, .-setup
 1943               	.Lscope11:
 1944               		.stabs	"",36,0,0,.Lscope11-.LFBB11
 1945               		.stabd	78,0,0
 1946               		.stabs	"__vector_14:F(0,15)",36,0,579,__vector_14
 1947               	.global	__vector_14
 1948               		.type	__vector_14, @function
 1949               	__vector_14:
 1950               		.stabd	46,0,0
 575:main.c        **** }
 576:main.c        **** 
 577:main.c        **** 
 578:main.c        **** //Compare on match interrupt
 579:main.c        **** ISR(TIMER0_COMPA_vect)
 580:main.c        **** {
 1951               		.stabn	68,0,580,.LM377-.LFBB12
 1952               	.LM377:
 1953               	.LFBB12:
 1954 0b20 1F92      		push r1
 1955 0b22 0F92      		push r0
 1956 0b24 0FB6      		in r0,__SREG__
 1957 0b26 0F92      		push r0
 1958 0b28 1124      		clr __zero_reg__
 1959 0b2a 8F93      		push r24
 1960 0b2c 9F93      		push r25
 1961               	/* prologue: Signal */
GAS LISTING /tmp/cc2bZtJH.s 			page 46


 1962               	/* frame size = 0 */
 1963               	/* stack size = 5 */
 1964               	.L__stack_usage = 5
 581:main.c        ****     if(delay == 0x02)
 1965               		.stabn	68,0,581,.LM378-.LFBB12
 1966               	.LM378:
 1967 0b2e 8091 0000 		lds r24,delay
 1968 0b32 9091 0000 		lds r25,delay+1
 1969 0b36 8230      		cpi r24,2
 1970 0b38 9105      		cpc r25,__zero_reg__
 1971 0b3a 01F4      		brne .L66
 582:main.c        ****     {
 583:main.c        ****         wallbrightness += 0x07;
 584:main.c        ****         wallbrightness += 0x0500;
 1972               		.stabn	68,0,584,.LM379-.LFBB12
 1973               	.LM379:
 1974 0b3c 8091 0000 		lds r24,wallbrightness
 1975 0b40 9091 0000 		lds r25,wallbrightness+1
 1976 0b44 895F      		subi r24,-7
 1977 0b46 9A4F      		sbci r25,-6
 1978 0b48 9093 0000 		sts wallbrightness+1,r25
 1979 0b4c 8093 0000 		sts wallbrightness,r24
 585:main.c        ****         delay = 0;
 1980               		.stabn	68,0,585,.LM380-.LFBB12
 1981               	.LM380:
 1982 0b50 1092 0000 		sts delay+1,__zero_reg__
 1983 0b54 1092 0000 		sts delay,__zero_reg__
 1984 0b58 00C0      		rjmp .L65
 1985               	.L66:
 586:main.c        ****     }else
 587:main.c        ****         delay++;
 1986               		.stabn	68,0,587,.LM381-.LFBB12
 1987               	.LM381:
 1988 0b5a 0196      		adiw r24,1
 1989 0b5c 9093 0000 		sts delay+1,r25
 1990 0b60 8093 0000 		sts delay,r24
 1991               	.L65:
 1992               	/* epilogue start */
 588:main.c        **** }
 1993               		.stabn	68,0,588,.LM382-.LFBB12
 1994               	.LM382:
 1995 0b64 9F91      		pop r25
 1996 0b66 8F91      		pop r24
 1997 0b68 0F90      		pop r0
 1998 0b6a 0FBE      		out __SREG__,r0
 1999 0b6c 0F90      		pop r0
 2000 0b6e 1F90      		pop r1
 2001 0b70 1895      		reti
 2002               		.size	__vector_14, .-__vector_14
 2003               	.Lscope12:
 2004               		.stabs	"",36,0,0,.Lscope12-.LFBB12
 2005               		.stabd	78,0,0
 2006               		.stabs	"__vector_11:F(0,15)",36,0,590,__vector_11
 2007               	.global	__vector_11
 2008               		.type	__vector_11, @function
 2009               	__vector_11:
 2010               		.stabd	46,0,0
GAS LISTING /tmp/cc2bZtJH.s 			page 47


 589:main.c        **** 
 590:main.c        **** ISR(TIMER1_COMPA_vect)
 591:main.c        **** {
 2011               		.stabn	68,0,591,.LM383-.LFBB13
 2012               	.LM383:
 2013               	.LFBB13:
 2014 0b72 1F92      		push r1
 2015 0b74 0F92      		push r0
 2016 0b76 0FB6      		in r0,__SREG__
 2017 0b78 0F92      		push r0
 2018 0b7a 1124      		clr __zero_reg__
 2019 0b7c 2F93      		push r18
 2020 0b7e 3F93      		push r19
 2021 0b80 4F93      		push r20
 2022 0b82 5F93      		push r21
 2023 0b84 6F93      		push r22
 2024 0b86 7F93      		push r23
 2025 0b88 8F93      		push r24
 2026 0b8a 9F93      		push r25
 2027 0b8c AF93      		push r26
 2028 0b8e BF93      		push r27
 2029 0b90 EF93      		push r30
 2030 0b92 FF93      		push r31
 2031               	/* prologue: Signal */
 2032               	/* frame size = 0 */
 2033               	/* stack size = 15 */
 2034               	.L__stack_usage = 15
 592:main.c        ****     erase_screen(0x0000);
 2035               		.stabn	68,0,592,.LM384-.LFBB13
 2036               	.LM384:
 2037 0b94 80E0      		ldi r24,0
 2038 0b96 90E0      		ldi r25,0
 2039 0b98 00D0      		rcall erase_screen
 593:main.c        ****     //update x
 594:main.c        ****     switch(state){
 2040               		.stabn	68,0,594,.LM385-.LFBB13
 2041               	.LM385:
 2042 0b9a 8091 0000 		lds r24,state
 2043 0b9e 8130      		cpi r24,lo8(1)
 2044 0ba0 01F0      		breq .L71
 2045 0ba2 00F0      		brlo .L70
 2046 0ba4 8230      		cpi r24,lo8(2)
 2047 0ba6 01F0      		breq .L72
 2048 0ba8 8330      		cpi r24,lo8(3)
 2049 0baa 01F4      		brne .L69
 2050 0bac 00C0      		rjmp .L73
 2051               	.L70:
 595:main.c        ****         case BOUNCER:
 596:main.c        ****             update_bouncer();
 2052               		.stabn	68,0,596,.LM386-.LFBB13
 2053               	.LM386:
 2054 0bae 00D0      		rcall update_bouncer
 597:main.c        ****             break;
 2055               		.stabn	68,0,597,.LM387-.LFBB13
 2056               	.LM387:
 2057 0bb0 00C0      		rjmp .L69
 2058               	.L71:
GAS LISTING /tmp/cc2bZtJH.s 			page 48


 598:main.c        ****         case SMILEY:
 599:main.c        ****             update_smiley();
 2059               		.stabn	68,0,599,.LM388-.LFBB13
 2060               	.LM388:
 2061 0bb2 00D0      		rcall update_smiley
 600:main.c        ****             break;
 2062               		.stabn	68,0,600,.LM389-.LFBB13
 2063               	.LM389:
 2064 0bb4 00C0      		rjmp .L69
 2065               	.L72:
 601:main.c        ****         case SINE:
 602:main.c        ****             update_sine();
 2066               		.stabn	68,0,602,.LM390-.LFBB13
 2067               	.LM390:
 2068 0bb6 00D0      		rcall update_sine
 603:main.c        ****             break;
 2069               		.stabn	68,0,603,.LM391-.LFBB13
 2070               	.LM391:
 2071 0bb8 00C0      		rjmp .L69
 2072               	.L73:
 604:main.c        ****         case SINECIRCLE:
 605:main.c        ****             update_sinecircle();
 2073               		.stabn	68,0,605,.LM392-.LFBB13
 2074               	.LM392:
 2075 0bba 00D0      		rcall update_sinecircle
 2076               	.L69:
 606:main.c        ****             break;
 607:main.c        ****     }//end switch
 608:main.c        **** 
 609:main.c        ****     statetimer += 1;
 2077               		.stabn	68,0,609,.LM393-.LFBB13
 2078               	.LM393:
 2079 0bbc 8091 0000 		lds r24,statetimer
 2080 0bc0 9091 0000 		lds r25,statetimer+1
 2081 0bc4 0196      		adiw r24,1
 2082 0bc6 9093 0000 		sts statetimer+1,r25
 2083 0bca 8093 0000 		sts statetimer,r24
 610:main.c        ****     if(statetimer==maxtimer)
 2084               		.stabn	68,0,610,.LM394-.LFBB13
 2085               	.LM394:
 2086 0bce 2091 0000 		lds r18,maxtimer
 2087 0bd2 3091 0000 		lds r19,maxtimer+1
 2088 0bd6 8217      		cp r24,r18
 2089 0bd8 9307      		cpc r25,r19
 2090 0bda 01F4      		brne .L68
 611:main.c        ****     {
 612:main.c        ****         statetimer=0;
 2091               		.stabn	68,0,612,.LM395-.LFBB13
 2092               	.LM395:
 2093 0bdc 1092 0000 		sts statetimer+1,__zero_reg__
 2094 0be0 1092 0000 		sts statetimer,__zero_reg__
 613:main.c        ****         state = (state+1)%(SINECIRCLE+1);
 2095               		.stabn	68,0,613,.LM396-.LFBB13
 2096               	.LM396:
 2097 0be4 8091 0000 		lds r24,state
 2098 0be8 90E0      		ldi r25,0
 2099 0bea 0196      		adiw r24,1
GAS LISTING /tmp/cc2bZtJH.s 			page 49


 2100 0bec 8370      		andi r24,3
 2101 0bee 9927      		clr r25
 2102 0bf0 8093 0000 		sts state,r24
 614:main.c        ****         switch(state){
 2103               		.stabn	68,0,614,.LM397-.LFBB13
 2104               	.LM397:
 2105 0bf4 8230      		cpi r24,lo8(2)
 2106 0bf6 01F4      		brne .L77
 615:main.c        ****             case(SINE):
 616:main.c        ****                 configure_sine();
 2107               		.stabn	68,0,616,.LM398-.LFBB13
 2108               	.LM398:
 2109 0bf8 00D0      		rcall configure_sine
 617:main.c        ****                 break;
 2110               		.stabn	68,0,617,.LM399-.LFBB13
 2111               	.LM399:
 2112 0bfa 00C0      		rjmp .L68
 2113               	.L77:
 618:main.c        ****             default:
 619:main.c        ****                 OCR1A = 0x0fff;
 2114               		.stabn	68,0,619,.LM400-.LFBB13
 2115               	.LM400:
 2116 0bfc 8FEF      		ldi r24,lo8(-1)
 2117 0bfe 9FE0      		ldi r25,lo8(15)
 2118 0c00 9093 8900 		sts 136+1,r25
 2119 0c04 8093 8800 		sts 136,r24
 620:main.c        ****                 maxtimer = 0x00ff;
 2120               		.stabn	68,0,620,.LM401-.LFBB13
 2121               	.LM401:
 2122 0c08 8FEF      		ldi r24,lo8(-1)
 2123 0c0a 90E0      		ldi r25,0
 2124 0c0c 9093 0000 		sts maxtimer+1,r25
 2125 0c10 8093 0000 		sts maxtimer,r24
 2126               	.L68:
 2127               	/* epilogue start */
 621:main.c        ****         }
 622:main.c        ****     }
 623:main.c        **** }//end ISR COMPA TIMER1
 2128               		.stabn	68,0,623,.LM402-.LFBB13
 2129               	.LM402:
 2130 0c14 FF91      		pop r31
 2131 0c16 EF91      		pop r30
 2132 0c18 BF91      		pop r27
 2133 0c1a AF91      		pop r26
 2134 0c1c 9F91      		pop r25
 2135 0c1e 8F91      		pop r24
 2136 0c20 7F91      		pop r23
 2137 0c22 6F91      		pop r22
 2138 0c24 5F91      		pop r21
 2139 0c26 4F91      		pop r20
 2140 0c28 3F91      		pop r19
 2141 0c2a 2F91      		pop r18
 2142 0c2c 0F90      		pop r0
 2143 0c2e 0FBE      		out __SREG__,r0
 2144 0c30 0F90      		pop r0
 2145 0c32 1F90      		pop r1
 2146 0c34 1895      		reti
GAS LISTING /tmp/cc2bZtJH.s 			page 50


 2147               		.size	__vector_11, .-__vector_11
 2148               	.Lscope13:
 2149               		.stabs	"",36,0,0,.Lscope13-.LFBB13
 2150               		.stabd	78,0,0
 2151               		.section	.text.startup,"ax",@progbits
 2152               		.stabs	"main:F(0,1)",36,0,627,main
 2153               	.global	main
 2154               		.type	main, @function
 2155               	main:
 2156               		.stabd	46,0,0
 624:main.c        **** 
 625:main.c        **** /* Main */
 626:main.c        **** 
 627:main.c        **** int main(void)
 628:main.c        **** {
 2157               		.stabn	68,0,628,.LM403-.LFBB14
 2158               	.LM403:
 2159               	.LFBB14:
 2160               	/* prologue: function */
 2161               	/* frame size = 0 */
 2162               	/* stack size = 0 */
 2163               	.L__stack_usage = 0
 629:main.c        **** 
 630:main.c        ****     setup();
 2164               		.stabn	68,0,630,.LM404-.LFBB14
 2165               	.LM404:
 2166 0000 00D0      		rcall setup
 631:main.c        **** 
 632:main.c        ****     //Configure image
 633:main.c        ****     //topline (y,x)
 634:main.c        **** 
 635:main.c        ****     /*
 636:main.c        ****     //write green elsewhere
 637:main.c        ****     for(i=0;i<8;i++)
 638:main.c        ****       for(j=0;j<8;j++)
 639:main.c        ****       {
 640:main.c        ****         if(matrix[i][j] != 255)
 641:main.c        ****           matrix[i][j] = (0xff<<8);
 642:main.c        ****       }
 643:main.c        ****       */
 644:main.c        **** 
 645:main.c        ****     //Configure timers first
 646:main.c        ****     //timer = TIMER_MAX_VALUE;
 647:main.c        **** 
 648:main.c        ****     //Configure all outputs
 649:main.c        ****     DDRB = 0xff; //SPI out
 2167               		.stabn	68,0,649,.LM405-.LFBB14
 2168               	.LM405:
 2169 0002 8FEF      		ldi r24,lo8(-1)
 2170 0004 84B9      		out 0x4,r24
 650:main.c        ****     DDRD = 0xff; //rows
 2171               		.stabn	68,0,650,.LM406-.LFBB14
 2172               	.LM406:
 2173 0006 8AB9      		out 0xa,r24
 651:main.c        ****     DDRC = 0xff; //shifter
 2174               		.stabn	68,0,651,.LM407-.LFBB14
 2175               	.LM407:
GAS LISTING /tmp/cc2bZtJH.s 			page 51


 2176 0008 87B9      		out 0x7,r24
 652:main.c        **** 
 653:main.c        ****     //Clear ports
 654:main.c        ****     PORTB = 0x00;
 2177               		.stabn	68,0,654,.LM408-.LFBB14
 2178               	.LM408:
 2179 000a 15B8      		out 0x5,__zero_reg__
 655:main.c        ****     PORTC = 0x00;
 2180               		.stabn	68,0,655,.LM409-.LFBB14
 2181               	.LM409:
 2182 000c 18B8      		out 0x8,__zero_reg__
 656:main.c        ****     PORTD = 0x00;
 2183               		.stabn	68,0,656,.LM410-.LFBB14
 2184               	.LM410:
 2185 000e 1BB8      		out 0xb,__zero_reg__
 657:main.c        **** 
 658:main.c        ****     //Initailize variables
 659:main.c        ****     uint8_t y=0;
 660:main.c        ****     PORTD = 0x00; //clear rows
 2186               		.stabn	68,0,660,.LM411-.LFBB14
 2187               	.LM411:
 2188 0010 1BB8      		out 0xb,__zero_reg__
 661:main.c        ****     uint8_t x=0;
 662:main.c        ****     inttimer=0x00;
 2189               		.stabn	68,0,662,.LM412-.LFBB14
 2190               	.LM412:
 2191 0012 1092 0000 		sts inttimer,__zero_reg__
 659:main.c        ****     uint8_t y=0;
 2192               		.stabn	68,0,659,.LM413-.LFBB14
 2193               	.LM413:
 2194 0016 10E0      		ldi r17,0
 663:main.c        **** 
 664:main.c        ****     while(1)
 665:main.c        ****     {
 666:main.c        ****         PORTC &= NOT(BS(reset));//clear everything
 667:main.c        ****         PORTC = 0x00|BS(reset);
 2195               		.stabn	68,0,667,.LM414-.LFBB14
 2196               	.LM414:
 2197 0018 00E2      		ldi r16,lo8(32)
 668:main.c        **** 
 669:main.c        ****         //Green pixels
 670:main.c        ****         for(x=0;x<8;x++)
 671:main.c        ****         {
 672:main.c        ****             if( (((matrix[y][7-x]))&0x00ff) >= inttimer)
 673:main.c        ****             {
 674:main.c        ****                 PORTC |= BS(data);
 675:main.c        ****             }else{
 676:main.c        ****                 PORTC &= NOT(BS(data));
 677:main.c        ****             }
 678:main.c        **** 
 679:main.c        ****             PORTC |= BS(shift);
 680:main.c        ****             PORTC &= NOT(BS(shift));
 681:main.c        ****         }
 682:main.c        **** 
 683:main.c        ****           //Red pixels
 684:main.c        ****         for(x=0;x<8;x++)
 685:main.c        ****         {
GAS LISTING /tmp/cc2bZtJH.s 			page 52


 686:main.c        ****             if( (((matrix[y][7-x])>>8)) >= inttimer)
 687:main.c        ****             {
 688:main.c        ****                 PORTC |= BS(data);
 689:main.c        ****             }else{
 690:main.c        ****                 PORTC &= NOT(BS(data));
 691:main.c        ****             }
 692:main.c        **** 
 693:main.c        ****             PORTC |= BS(shift);
 694:main.c        ****             PORTC &= NOT(BS(shift));
 695:main.c        ****         }//end for
 696:main.c        **** 
 697:main.c        ****         PORTD = 0x00; //clear display
 698:main.c        ****         PORTC |= BS(latch);
 699:main.c        ****         PORTC &= NOT(BS(latch));
 700:main.c        **** 
 701:main.c        ****         //Output row data
 702:main.c        ****         PORTD = BS(y);
 2198               		.stabn	68,0,702,.LM415-.LFBB14
 2199               	.LM415:
 2200 001a E1E0      		ldi r30,lo8(1)
 2201 001c F0E0      		ldi r31,0
 703:main.c        ****         y++;
 704:main.c        ****         y = y%8;
 705:main.c        **** 
 706:main.c        **** 
 707:main.c        ****         //Increment intensity timer
 708:main.c        ****         
 709:main.c        ****         if(inttimer==255)
 710:main.c        ****             inttimer=1;
 2202               		.stabn	68,0,710,.LM416-.LFBB14
 2203               	.LM416:
 2204 001e FF24      		clr r15
 2205 0020 F394      		inc r15
 2206               	.L90:
 666:main.c        ****         PORTC &= NOT(BS(reset));//clear everything
 2207               		.stabn	68,0,666,.LM417-.LFBB14
 2208               	.LM417:
 2209 0022 4598      		cbi 0x8,5
 667:main.c        ****         PORTC = 0x00|BS(reset);
 2210               		.stabn	68,0,667,.LM418-.LFBB14
 2211               	.LM418:
 2212 0024 08B9      		out 0x8,r16
 627:main.c        **** int main(void)
 2213               		.stabn	68,0,627,.LM419-.LFBB14
 2214               	.LM419:
 2215 0026 612F      		mov r22,r17
 2216 0028 70E0      		ldi r23,0
 2217 002a 9B01      		movw r18,r22
 2218 002c D4E0      		ldi r29,4
 2219               		1:
 2220 002e 220F      		lsl r18
 2221 0030 331F      		rol r19
 2222 0032 DA95      		dec r29
 2223 0034 01F4      		brne 1b
 2224 0036 2050      		subi r18,lo8(-(matrix))
 2225 0038 3040      		sbci r19,hi8(-(matrix))
 2226 003a 80E0      		ldi r24,0
GAS LISTING /tmp/cc2bZtJH.s 			page 53


 2227 003c 90E0      		ldi r25,0
 2228               	.L82:
 2229 003e D901      		movw r26,r18
 2230 0040 A80F      		add r26,r24
 2231 0042 B91F      		adc r27,r25
 672:main.c        ****             if( (((matrix[y][7-x]))&0x00ff) >= inttimer)
 2232               		.stabn	68,0,672,.LM420-.LFBB14
 2233               	.LM420:
 2234 0044 1E96      		adiw r26,14
 2235 0046 4D91      		ld r20,X+
 2236 0048 5C91      		ld r21,X
 2237 004a 1F97      		sbiw r26,14+1
 2238 004c 5527      		clr r21
 2239 004e A091 0000 		lds r26,inttimer
 2240 0052 B0E0      		ldi r27,0
 2241 0054 4A17      		cp r20,r26
 2242 0056 5B07      		cpc r21,r27
 2243 0058 00F0      		brlo .L80
 674:main.c        ****                 PORTC |= BS(data);
 2244               		.stabn	68,0,674,.LM421-.LFBB14
 2245               	.LM421:
 2246 005a 409A      		sbi 0x8,0
 2247 005c 00C0      		rjmp .L81
 2248               	.L80:
 676:main.c        ****                 PORTC &= NOT(BS(data));
 2249               		.stabn	68,0,676,.LM422-.LFBB14
 2250               	.LM422:
 2251 005e 4098      		cbi 0x8,0
 2252               	.L81:
 679:main.c        ****             PORTC |= BS(shift);
 2253               		.stabn	68,0,679,.LM423-.LFBB14
 2254               	.LM423:
 2255 0060 419A      		sbi 0x8,1
 680:main.c        ****             PORTC &= NOT(BS(shift));
 2256               		.stabn	68,0,680,.LM424-.LFBB14
 2257               	.LM424:
 2258 0062 4198      		cbi 0x8,1
 2259 0064 0297      		sbiw r24,2
 670:main.c        ****         for(x=0;x<8;x++)
 2260               		.stabn	68,0,670,.LM425-.LFBB14
 2261               	.LM425:
 2262 0066 803F      		cpi r24,-16
 2263 0068 4FEF      		ldi r20,-1
 2264 006a 9407      		cpc r25,r20
 2265 006c 01F4      		brne .L82
 627:main.c        **** int main(void)
 2266               		.stabn	68,0,627,.LM426-.LFBB14
 2267               	.LM426:
 2268 006e 9B01      		movw r18,r22
 2269 0070 C4E0      		ldi r28,4
 2270               		1:
 2271 0072 220F      		lsl r18
 2272 0074 331F      		rol r19
 2273 0076 CA95      		dec r28
 2274 0078 01F4      		brne 1b
 2275 007a 2050      		subi r18,lo8(-(matrix))
 2276 007c 3040      		sbci r19,hi8(-(matrix))
GAS LISTING /tmp/cc2bZtJH.s 			page 54


 2277 007e 80E0      		ldi r24,0
 2278 0080 90E0      		ldi r25,0
 2279               	.L85:
 2280 0082 D901      		movw r26,r18
 2281 0084 A80F      		add r26,r24
 2282 0086 B91F      		adc r27,r25
 686:main.c        ****             if( (((matrix[y][7-x])>>8)) >= inttimer)
 2283               		.stabn	68,0,686,.LM427-.LFBB14
 2284               	.LM427:
 2285 0088 1F96      		adiw r26,15
 2286 008a 4C91      		ld r20,X
 2287 008c C42F      		mov r28,r20
 2288 008e 40E0      		ldi r20,0
 2289 0090 D42F      		mov r29,r20
 2290 0092 4091 0000 		lds r20,inttimer
 2291 0096 50E0      		ldi r21,0
 2292 0098 C417      		cp r28,r20
 2293 009a D507      		cpc r29,r21
 2294 009c 00F0      		brlo .L83
 688:main.c        ****                 PORTC |= BS(data);
 2295               		.stabn	68,0,688,.LM428-.LFBB14
 2296               	.LM428:
 2297 009e 409A      		sbi 0x8,0
 2298 00a0 00C0      		rjmp .L84
 2299               	.L83:
 690:main.c        ****                 PORTC &= NOT(BS(data));
 2300               		.stabn	68,0,690,.LM429-.LFBB14
 2301               	.LM429:
 2302 00a2 4098      		cbi 0x8,0
 2303               	.L84:
 693:main.c        ****             PORTC |= BS(shift);
 2304               		.stabn	68,0,693,.LM430-.LFBB14
 2305               	.LM430:
 2306 00a4 419A      		sbi 0x8,1
 694:main.c        ****             PORTC &= NOT(BS(shift));
 2307               		.stabn	68,0,694,.LM431-.LFBB14
 2308               	.LM431:
 2309 00a6 4198      		cbi 0x8,1
 2310 00a8 0297      		sbiw r24,2
 684:main.c        ****         for(x=0;x<8;x++)
 2311               		.stabn	68,0,684,.LM432-.LFBB14
 2312               	.LM432:
 2313 00aa 803F      		cpi r24,-16
 2314 00ac 4FEF      		ldi r20,-1
 2315 00ae 9407      		cpc r25,r20
 2316 00b0 01F4      		brne .L85
 697:main.c        ****         PORTD = 0x00; //clear display
 2317               		.stabn	68,0,697,.LM433-.LFBB14
 2318               	.LM433:
 2319 00b2 1BB8      		out 0xb,__zero_reg__
 698:main.c        ****         PORTC |= BS(latch);
 2320               		.stabn	68,0,698,.LM434-.LFBB14
 2321               	.LM434:
 2322 00b4 429A      		sbi 0x8,2
 699:main.c        ****         PORTC &= NOT(BS(latch));
 2323               		.stabn	68,0,699,.LM435-.LFBB14
 2324               	.LM435:
GAS LISTING /tmp/cc2bZtJH.s 			page 55


 2325 00b6 4298      		cbi 0x8,2
 702:main.c        ****         PORTD = BS(y);
 2326               		.stabn	68,0,702,.LM436-.LFBB14
 2327               	.LM436:
 2328 00b8 CF01      		movw r24,r30
 2329 00ba 00C0      		rjmp 2f
 2330               		1:
 2331 00bc 880F      		lsl r24
 2332 00be 991F      		rol r25
 2333               		2:
 2334 00c0 6A95      		dec r22
 2335 00c2 02F4      		brpl 1b
 2336 00c4 8BB9      		out 0xb,r24
 703:main.c        ****         y++;
 2337               		.stabn	68,0,703,.LM437-.LFBB14
 2338               	.LM437:
 2339 00c6 1F5F      		subi r17,lo8(-(1))
 704:main.c        ****         y = y%8;
 2340               		.stabn	68,0,704,.LM438-.LFBB14
 2341               	.LM438:
 2342 00c8 1770      		andi r17,lo8(7)
 709:main.c        ****         if(inttimer==255)
 2343               		.stabn	68,0,709,.LM439-.LFBB14
 2344               	.LM439:
 2345 00ca 8091 0000 		lds r24,inttimer
 2346 00ce 8F3F      		cpi r24,lo8(-1)
 2347 00d0 01F4      		brne .L86
 2348               		.stabn	68,0,710,.LM440-.LFBB14
 2349               	.LM440:
 2350 00d2 F092 0000 		sts inttimer,r15
 2351 00d6 00C0      		rjmp .L90
 2352               	.L86:
 711:main.c        ****         else
 712:main.c        ****             inttimer++;
 2353               		.stabn	68,0,712,.LM441-.LFBB14
 2354               	.LM441:
 2355 00d8 8F5F      		subi r24,lo8(-(1))
 2356 00da 8093 0000 		sts inttimer,r24
 2357 00de 00C0      		rjmp .L90
 2358               		.size	main, .-main
 2359               	.Lscope14:
 2360               		.stabs	"",36,0,0,.Lscope14-.LFBB14
 2361               		.stabd	78,0,0
 2362               	.global	sinemap
 2363               		.data
 2364               		.type	sinemap, @object
 2365               		.size	sinemap, 224
 2366               	sinemap:
 2367 0000 01        		.byte	1
 2368 0001 01        		.byte	1
 2369 0002 01        		.byte	1
 2370 0003 01        		.byte	1
 2371 0004 00        		.byte	0
 2372 0005 00        		.byte	0
 2373 0006 00        		.byte	0
 2374 0007 00        		.byte	0
 2375 0008 00        		.byte	0
GAS LISTING /tmp/cc2bZtJH.s 			page 56


 2376 0009 00        		.byte	0
 2377 000a 00        		.byte	0
 2378 000b 00        		.byte	0
 2379 000c 00        		.byte	0
 2380 000d 00        		.byte	0
 2381 000e 00        		.byte	0
 2382 000f 00        		.byte	0
 2383 0010 00        		.byte	0
 2384 0011 00        		.byte	0
 2385 0012 00        		.byte	0
 2386 0013 00        		.byte	0
 2387 0014 00        		.byte	0
 2388 0015 00        		.byte	0
 2389 0016 00        		.byte	0
 2390 0017 00        		.byte	0
 2391 0018 00        		.byte	0
 2392 0019 00        		.byte	0
 2393 001a 00        		.byte	0
 2394 001b 00        		.byte	0
 2395 001c 00        		.byte	0
 2396 001d 00        		.byte	0
 2397 001e 00        		.byte	0
 2398 001f 00        		.byte	0
 2399 0020 01        		.byte	1
 2400 0021 01        		.byte	1
 2401 0022 00        		.byte	0
 2402 0023 00        		.byte	0
 2403 0024 00        		.byte	0
 2404 0025 00        		.byte	0
 2405 0026 00        		.byte	0
 2406 0027 00        		.byte	0
 2407 0028 00        		.byte	0
 2408 0029 00        		.byte	0
 2409 002a 00        		.byte	0
 2410 002b 00        		.byte	0
 2411 002c 00        		.byte	0
 2412 002d 00        		.byte	0
 2413 002e 00        		.byte	0
 2414 002f 00        		.byte	0
 2415 0030 00        		.byte	0
 2416 0031 00        		.byte	0
 2417 0032 00        		.byte	0
 2418 0033 00        		.byte	0
 2419 0034 00        		.byte	0
 2420 0035 00        		.byte	0
 2421 0036 01        		.byte	1
 2422 0037 01        		.byte	1
 2423 0038 00        		.byte	0
 2424 0039 00        		.byte	0
 2425 003a 00        		.byte	0
 2426 003b 00        		.byte	0
 2427 003c 00        		.byte	0
 2428 003d 00        		.byte	0
 2429 003e 01        		.byte	1
 2430 003f 01        		.byte	1
 2431 0040 00        		.byte	0
 2432 0041 00        		.byte	0
GAS LISTING /tmp/cc2bZtJH.s 			page 57


 2433 0042 00        		.byte	0
 2434 0043 00        		.byte	0
 2435 0044 00        		.byte	0
 2436 0045 00        		.byte	0
 2437 0046 00        		.byte	0
 2438 0047 00        		.byte	0
 2439 0048 00        		.byte	0
 2440 0049 00        		.byte	0
 2441 004a 00        		.byte	0
 2442 004b 00        		.byte	0
 2443 004c 00        		.byte	0
 2444 004d 00        		.byte	0
 2445 004e 00        		.byte	0
 2446 004f 00        		.byte	0
 2447 0050 01        		.byte	1
 2448 0051 01        		.byte	1
 2449 0052 00        		.byte	0
 2450 0053 00        		.byte	0
 2451 0054 00        		.byte	0
 2452 0055 00        		.byte	0
 2453 0056 00        		.byte	0
 2454 0057 00        		.byte	0
 2455 0058 00        		.byte	0
 2456 0059 00        		.byte	0
 2457 005a 00        		.byte	0
 2458 005b 00        		.byte	0
 2459 005c 01        		.byte	1
 2460 005d 00        		.byte	0
 2461 005e 00        		.byte	0
 2462 005f 00        		.byte	0
 2463 0060 00        		.byte	0
 2464 0061 00        		.byte	0
 2465 0062 00        		.byte	0
 2466 0063 00        		.byte	0
 2467 0064 00        		.byte	0
 2468 0065 00        		.byte	0
 2469 0066 00        		.byte	0
 2470 0067 00        		.byte	0
 2471 0068 00        		.byte	0
 2472 0069 00        		.byte	0
 2473 006a 00        		.byte	0
 2474 006b 01        		.byte	1
 2475 006c 00        		.byte	0
 2476 006d 00        		.byte	0
 2477 006e 00        		.byte	0
 2478 006f 00        		.byte	0
 2479 0070 00        		.byte	0
 2480 0071 00        		.byte	0
 2481 0072 00        		.byte	0
 2482 0073 00        		.byte	0
 2483 0074 00        		.byte	0
 2484 0075 00        		.byte	0
 2485 0076 00        		.byte	0
 2486 0077 00        		.byte	0
 2487 0078 00        		.byte	0
 2488 0079 01        		.byte	1
 2489 007a 00        		.byte	0
GAS LISTING /tmp/cc2bZtJH.s 			page 58


 2490 007b 00        		.byte	0
 2491 007c 00        		.byte	0
 2492 007d 00        		.byte	0
 2493 007e 00        		.byte	0
 2494 007f 00        		.byte	0
 2495 0080 00        		.byte	0
 2496 0081 00        		.byte	0
 2497 0082 00        		.byte	0
 2498 0083 00        		.byte	0
 2499 0084 00        		.byte	0
 2500 0085 00        		.byte	0
 2501 0086 01        		.byte	1
 2502 0087 00        		.byte	0
 2503 0088 00        		.byte	0
 2504 0089 00        		.byte	0
 2505 008a 00        		.byte	0
 2506 008b 00        		.byte	0
 2507 008c 00        		.byte	0
 2508 008d 00        		.byte	0
 2509 008e 00        		.byte	0
 2510 008f 00        		.byte	0
 2511 0090 00        		.byte	0
 2512 0091 00        		.byte	0
 2513 0092 00        		.byte	0
 2514 0093 00        		.byte	0
 2515 0094 00        		.byte	0
 2516 0095 00        		.byte	0
 2517 0096 01        		.byte	1
 2518 0097 01        		.byte	1
 2519 0098 00        		.byte	0
 2520 0099 00        		.byte	0
 2521 009a 00        		.byte	0
 2522 009b 00        		.byte	0
 2523 009c 00        		.byte	0
 2524 009d 00        		.byte	0
 2525 009e 00        		.byte	0
 2526 009f 00        		.byte	0
 2527 00a0 01        		.byte	1
 2528 00a1 01        		.byte	1
 2529 00a2 00        		.byte	0
 2530 00a3 00        		.byte	0
 2531 00a4 00        		.byte	0
 2532 00a5 00        		.byte	0
 2533 00a6 00        		.byte	0
 2534 00a7 00        		.byte	0
 2535 00a8 00        		.byte	0
 2536 00a9 00        		.byte	0
 2537 00aa 00        		.byte	0
 2538 00ab 00        		.byte	0
 2539 00ac 00        		.byte	0
 2540 00ad 00        		.byte	0
 2541 00ae 00        		.byte	0
 2542 00af 00        		.byte	0
 2543 00b0 00        		.byte	0
 2544 00b1 00        		.byte	0
 2545 00b2 00        		.byte	0
 2546 00b3 00        		.byte	0
GAS LISTING /tmp/cc2bZtJH.s 			page 59


 2547 00b4 01        		.byte	1
 2548 00b5 01        		.byte	1
 2549 00b6 00        		.byte	0
 2550 00b7 00        		.byte	0
 2551 00b8 00        		.byte	0
 2552 00b9 00        		.byte	0
 2553 00ba 01        		.byte	1
 2554 00bb 01        		.byte	1
 2555 00bc 00        		.byte	0
 2556 00bd 00        		.byte	0
 2557 00be 00        		.byte	0
 2558 00bf 00        		.byte	0
 2559 00c0 00        		.byte	0
 2560 00c1 00        		.byte	0
 2561 00c2 00        		.byte	0
 2562 00c3 00        		.byte	0
 2563 00c4 00        		.byte	0
 2564 00c5 00        		.byte	0
 2565 00c6 00        		.byte	0
 2566 00c7 00        		.byte	0
 2567 00c8 00        		.byte	0
 2568 00c9 00        		.byte	0
 2569 00ca 00        		.byte	0
 2570 00cb 00        		.byte	0
 2571 00cc 00        		.byte	0
 2572 00cd 00        		.byte	0
 2573 00ce 00        		.byte	0
 2574 00cf 00        		.byte	0
 2575 00d0 00        		.byte	0
 2576 00d1 00        		.byte	0
 2577 00d2 01        		.byte	1
 2578 00d3 01        		.byte	1
 2579 00d4 01        		.byte	1
 2580 00d5 01        		.byte	1
 2581 00d6 00        		.byte	0
 2582 00d7 00        		.byte	0
 2583 00d8 00        		.byte	0
 2584 00d9 00        		.byte	0
 2585 00da 00        		.byte	0
 2586 00db 00        		.byte	0
 2587 00dc 00        		.byte	0
 2588 00dd 00        		.byte	0
 2589 00de 00        		.byte	0
 2590 00df 00        		.byte	0
 2591               	.global	smileymap
 2592               		.type	smileymap, @object
 2593               		.size	smileymap, 64
 2594               	smileymap:
 2595 00e0 00        		.byte	0
 2596 00e1 00        		.byte	0
 2597 00e2 01        		.byte	1
 2598 00e3 01        		.byte	1
 2599 00e4 01        		.byte	1
 2600 00e5 01        		.byte	1
 2601 00e6 00        		.byte	0
 2602 00e7 00        		.byte	0
 2603 00e8 00        		.byte	0
GAS LISTING /tmp/cc2bZtJH.s 			page 60


 2604 00e9 01        		.byte	1
 2605 00ea 00        		.byte	0
 2606 00eb 00        		.byte	0
 2607 00ec 00        		.byte	0
 2608 00ed 00        		.byte	0
 2609 00ee 01        		.byte	1
 2610 00ef 00        		.byte	0
 2611 00f0 01        		.byte	1
 2612 00f1 00        		.byte	0
 2613 00f2 01        		.byte	1
 2614 00f3 00        		.byte	0
 2615 00f4 00        		.byte	0
 2616 00f5 01        		.byte	1
 2617 00f6 00        		.byte	0
 2618 00f7 01        		.byte	1
 2619 00f8 01        		.byte	1
 2620 00f9 00        		.byte	0
 2621 00fa 00        		.byte	0
 2622 00fb 00        		.byte	0
 2623 00fc 00        		.byte	0
 2624 00fd 00        		.byte	0
 2625 00fe 00        		.byte	0
 2626 00ff 01        		.byte	1
 2627 0100 01        		.byte	1
 2628 0101 00        		.byte	0
 2629 0102 01        		.byte	1
 2630 0103 00        		.byte	0
 2631 0104 00        		.byte	0
 2632 0105 01        		.byte	1
 2633 0106 00        		.byte	0
 2634 0107 01        		.byte	1
 2635 0108 01        		.byte	1
 2636 0109 00        		.byte	0
 2637 010a 00        		.byte	0
 2638 010b 01        		.byte	1
 2639 010c 01        		.byte	1
 2640 010d 00        		.byte	0
 2641 010e 00        		.byte	0
 2642 010f 01        		.byte	1
 2643 0110 00        		.byte	0
 2644 0111 01        		.byte	1
 2645 0112 00        		.byte	0
 2646 0113 00        		.byte	0
 2647 0114 00        		.byte	0
 2648 0115 00        		.byte	0
 2649 0116 01        		.byte	1
 2650 0117 00        		.byte	0
 2651 0118 00        		.byte	0
 2652 0119 00        		.byte	0
 2653 011a 01        		.byte	1
 2654 011b 01        		.byte	1
 2655 011c 01        		.byte	1
 2656 011d 01        		.byte	1
 2657 011e 00        		.byte	0
 2658 011f 00        		.byte	0
 2659               		.comm	sinecounter,1,1
 2660               		.comm	radius,1,1
GAS LISTING /tmp/cc2bZtJH.s 			page 61


 2661               		.comm	wallbrightness,2,1
 2662               		.comm	diry,1,1
 2663               		.comm	dirx,1,1
 2664               		.comm	posy,1,1
 2665               		.comm	posx,1,1
 2666               		.comm	delay,2,1
 2667               		.comm	maxtimer,2,1
 2668               		.comm	inttimer,1,1
 2669               		.comm	matrix,128,1
 2670               		.comm	statetimer,2,1
 2671               		.comm	state,1,1
 2672               		.stabs	"state:G(5,2)",32,0,36,0
 2673               		.stabs	"statetimer:G(5,4)",32,0,37,0
 2674               		.stabs	"matrix:G(0,17)=ar(0,18)=r(0,18);0;0177777;;0;7;(0,19)=ar(0,18);0;7;(5,4)",32,0,38,0
 2675               		.stabs	"inttimer:G(5,2)",32,0,39,0
 2676               		.stabs	"maxtimer:G(5,4)",32,0,40,0
 2677               		.stabs	"delay:G(5,4)",32,0,41,0
 2678               		.stabs	"posx:G(5,2)",32,0,44,0
 2679               		.stabs	"posy:G(5,2)",32,0,45,0
 2680               		.stabs	"dirx:G(5,2)",32,0,46,0
 2681               		.stabs	"diry:G(5,2)",32,0,47,0
 2682               		.stabs	"wallbrightness:G(5,4)",32,0,48,0
 2683               		.stabs	"radius:G(5,2)",32,0,51,0
 2684               		.stabs	"sinecounter:G(5,2)",32,0,54,0
 2685               		.stabs	"smileymap:G(0,20)=ar(0,18);0;7;(0,21)=ar(0,18);0;7;(5,2)",32,0,57,0
 2686               		.stabs	"sinemap:G(0,22)=ar(0,18);0;7;(0,23)=ar(0,18);0;27;(5,2)",32,0,68,0
 2687               		.text
 2688               		.stabs	"",100,0,0,.Letext0
 2689               	.Letext0:
 2690               		.ident	"GCC: (GNU) 4.7.0"
 2691               	.global __do_copy_data
 2692               	.global __do_clear_bss
GAS LISTING /tmp/cc2bZtJH.s 			page 62


DEFINED SYMBOLS
                            *ABS*:0000000000000000 main.c
     /tmp/cc2bZtJH.s:2      *ABS*:000000000000003e __SP_H__
     /tmp/cc2bZtJH.s:3      *ABS*:000000000000003d __SP_L__
     /tmp/cc2bZtJH.s:4      *ABS*:000000000000003f __SREG__
     /tmp/cc2bZtJH.s:5      *ABS*:0000000000000000 __tmp_reg__
     /tmp/cc2bZtJH.s:6      *ABS*:0000000000000001 __zero_reg__
     /tmp/cc2bZtJH.s:89     .text:0000000000000000 erase_screen
                            *COM*:0000000000000080 matrix
     /tmp/cc2bZtJH.s:139    .text:0000000000000030 draw_circle
     /tmp/cc2bZtJH.s:1279   .text:0000000000000878 draw_outline
                            *COM*:0000000000000002 wallbrightness
     /tmp/cc2bZtJH.s:1364   .text:00000000000008d0 update_sinecircle
                            *COM*:0000000000000001 radius
     /tmp/cc2bZtJH.s:1401   .text:00000000000008f2 update_sine
                            *COM*:0000000000000001 sinecounter
     /tmp/cc2bZtJH.s:2366   .data:0000000000000000 sinemap
     /tmp/cc2bZtJH.s:1529   .text:0000000000000994 update_smiley
     /tmp/cc2bZtJH.s:2594   .data:00000000000000e0 smileymap
     /tmp/cc2bZtJH.s:1601   .text:00000000000009e0 update_bouncer
                            *COM*:0000000000000001 dirx
                            *COM*:0000000000000001 posx
                            *COM*:0000000000000001 diry
                            *COM*:0000000000000001 posy
     /tmp/cc2bZtJH.s:1718   .text:0000000000000a66 configure_sine
                            *COM*:0000000000000002 maxtimer
     /tmp/cc2bZtJH.s:1765   .text:0000000000000a8c configure_timer0
     /tmp/cc2bZtJH.s:1824   .text:0000000000000aae configure_timer1
     /tmp/cc2bZtJH.s:1888   .text:0000000000000ae4 setup
                            *COM*:0000000000000001 state
                            *COM*:0000000000000002 delay
     /tmp/cc2bZtJH.s:1949   .text:0000000000000b20 __vector_14
     /tmp/cc2bZtJH.s:2009   .text:0000000000000b72 __vector_11
                            *COM*:0000000000000002 statetimer
     /tmp/cc2bZtJH.s:2155   .text.startup:0000000000000000 main
                            *COM*:0000000000000001 inttimer

UNDEFINED SYMBOLS
__divmodhi4
__do_copy_data
__do_clear_bss
